
ctarget:     file format elf64-x86-64


Disassembly of section .init:

0000000000400c48 <_init>:
  400c48:	48 83 ec 08          	sub    $0x8,%rsp
  400c4c:	48 8b 05 a5 33 20 00 	mov    0x2033a5(%rip),%rax        # 603ff8 <__gmon_start__>
  400c53:	48 85 c0             	test   %rax,%rax
  400c56:	74 05                	je     400c5d <_init+0x15>
  400c58:	e8 43 02 00 00       	callq  400ea0 <__gmon_start__@plt>
  400c5d:	48 83 c4 08          	add    $0x8,%rsp
  400c61:	c3                   	retq   

Disassembly of section .plt:

0000000000400c70 <.plt>:
  400c70:	ff 35 92 33 20 00    	pushq  0x203392(%rip)        # 604008 <_GLOBAL_OFFSET_TABLE_+0x8>
  400c76:	ff 25 94 33 20 00    	jmpq   *0x203394(%rip)        # 604010 <_GLOBAL_OFFSET_TABLE_+0x10>
  400c7c:	0f 1f 40 00          	nopl   0x0(%rax)

0000000000400c80 <strcasecmp@plt>:
  400c80:	ff 25 92 33 20 00    	jmpq   *0x203392(%rip)        # 604018 <strcasecmp@GLIBC_2.2.5>
  400c86:	68 00 00 00 00       	pushq  $0x0
  400c8b:	e9 e0 ff ff ff       	jmpq   400c70 <.plt>

0000000000400c90 <__errno_location@plt>:
  400c90:	ff 25 8a 33 20 00    	jmpq   *0x20338a(%rip)        # 604020 <__errno_location@GLIBC_2.2.5>
  400c96:	68 01 00 00 00       	pushq  $0x1
  400c9b:	e9 d0 ff ff ff       	jmpq   400c70 <.plt>

0000000000400ca0 <srandom@plt>:
  400ca0:	ff 25 82 33 20 00    	jmpq   *0x203382(%rip)        # 604028 <srandom@GLIBC_2.2.5>
  400ca6:	68 02 00 00 00       	pushq  $0x2
  400cab:	e9 c0 ff ff ff       	jmpq   400c70 <.plt>

0000000000400cb0 <strncmp@plt>:
  400cb0:	ff 25 7a 33 20 00    	jmpq   *0x20337a(%rip)        # 604030 <strncmp@GLIBC_2.2.5>
  400cb6:	68 03 00 00 00       	pushq  $0x3
  400cbb:	e9 b0 ff ff ff       	jmpq   400c70 <.plt>

0000000000400cc0 <strcpy@plt>:
  400cc0:	ff 25 72 33 20 00    	jmpq   *0x203372(%rip)        # 604038 <strcpy@GLIBC_2.2.5>
  400cc6:	68 04 00 00 00       	pushq  $0x4
  400ccb:	e9 a0 ff ff ff       	jmpq   400c70 <.plt>

0000000000400cd0 <puts@plt>:
  400cd0:	ff 25 6a 33 20 00    	jmpq   *0x20336a(%rip)        # 604040 <puts@GLIBC_2.2.5>
  400cd6:	68 05 00 00 00       	pushq  $0x5
  400cdb:	e9 90 ff ff ff       	jmpq   400c70 <.plt>

0000000000400ce0 <write@plt>:
  400ce0:	ff 25 62 33 20 00    	jmpq   *0x203362(%rip)        # 604048 <write@GLIBC_2.2.5>
  400ce6:	68 06 00 00 00       	pushq  $0x6
  400ceb:	e9 80 ff ff ff       	jmpq   400c70 <.plt>

0000000000400cf0 <__stack_chk_fail@plt>:
  400cf0:	ff 25 5a 33 20 00    	jmpq   *0x20335a(%rip)        # 604050 <__stack_chk_fail@GLIBC_2.4>
  400cf6:	68 07 00 00 00       	pushq  $0x7
  400cfb:	e9 70 ff ff ff       	jmpq   400c70 <.plt>

0000000000400d00 <mmap@plt>:
  400d00:	ff 25 52 33 20 00    	jmpq   *0x203352(%rip)        # 604058 <mmap@GLIBC_2.2.5>
  400d06:	68 08 00 00 00       	pushq  $0x8
  400d0b:	e9 60 ff ff ff       	jmpq   400c70 <.plt>

0000000000400d10 <memset@plt>:
  400d10:	ff 25 4a 33 20 00    	jmpq   *0x20334a(%rip)        # 604060 <memset@GLIBC_2.2.5>
  400d16:	68 09 00 00 00       	pushq  $0x9
  400d1b:	e9 50 ff ff ff       	jmpq   400c70 <.plt>

0000000000400d20 <alarm@plt>:
  400d20:	ff 25 42 33 20 00    	jmpq   *0x203342(%rip)        # 604068 <alarm@GLIBC_2.2.5>
  400d26:	68 0a 00 00 00       	pushq  $0xa
  400d2b:	e9 40 ff ff ff       	jmpq   400c70 <.plt>

0000000000400d30 <close@plt>:
  400d30:	ff 25 3a 33 20 00    	jmpq   *0x20333a(%rip)        # 604070 <close@GLIBC_2.2.5>
  400d36:	68 0b 00 00 00       	pushq  $0xb
  400d3b:	e9 30 ff ff ff       	jmpq   400c70 <.plt>

0000000000400d40 <read@plt>:
  400d40:	ff 25 32 33 20 00    	jmpq   *0x203332(%rip)        # 604078 <read@GLIBC_2.2.5>
  400d46:	68 0c 00 00 00       	pushq  $0xc
  400d4b:	e9 20 ff ff ff       	jmpq   400c70 <.plt>

0000000000400d50 <__libc_start_main@plt>:
  400d50:	ff 25 2a 33 20 00    	jmpq   *0x20332a(%rip)        # 604080 <__libc_start_main@GLIBC_2.2.5>
  400d56:	68 0d 00 00 00       	pushq  $0xd
  400d5b:	e9 10 ff ff ff       	jmpq   400c70 <.plt>

0000000000400d60 <signal@plt>:
  400d60:	ff 25 22 33 20 00    	jmpq   *0x203322(%rip)        # 604088 <signal@GLIBC_2.2.5>
  400d66:	68 0e 00 00 00       	pushq  $0xe
  400d6b:	e9 00 ff ff ff       	jmpq   400c70 <.plt>

0000000000400d70 <gethostbyname@plt>:
  400d70:	ff 25 1a 33 20 00    	jmpq   *0x20331a(%rip)        # 604090 <gethostbyname@GLIBC_2.2.5>
  400d76:	68 0f 00 00 00       	pushq  $0xf
  400d7b:	e9 f0 fe ff ff       	jmpq   400c70 <.plt>

0000000000400d80 <__memmove_chk@plt>:
  400d80:	ff 25 12 33 20 00    	jmpq   *0x203312(%rip)        # 604098 <__memmove_chk@GLIBC_2.3.4>
  400d86:	68 10 00 00 00       	pushq  $0x10
  400d8b:	e9 e0 fe ff ff       	jmpq   400c70 <.plt>

0000000000400d90 <strtol@plt>:
  400d90:	ff 25 0a 33 20 00    	jmpq   *0x20330a(%rip)        # 6040a0 <strtol@GLIBC_2.2.5>
  400d96:	68 11 00 00 00       	pushq  $0x11
  400d9b:	e9 d0 fe ff ff       	jmpq   400c70 <.plt>

0000000000400da0 <memcpy@plt>:
  400da0:	ff 25 02 33 20 00    	jmpq   *0x203302(%rip)        # 6040a8 <memcpy@GLIBC_2.14>
  400da6:	68 12 00 00 00       	pushq  $0x12
  400dab:	e9 c0 fe ff ff       	jmpq   400c70 <.plt>

0000000000400db0 <time@plt>:
  400db0:	ff 25 fa 32 20 00    	jmpq   *0x2032fa(%rip)        # 6040b0 <time@GLIBC_2.2.5>
  400db6:	68 13 00 00 00       	pushq  $0x13
  400dbb:	e9 b0 fe ff ff       	jmpq   400c70 <.plt>

0000000000400dc0 <random@plt>:
  400dc0:	ff 25 f2 32 20 00    	jmpq   *0x2032f2(%rip)        # 6040b8 <random@GLIBC_2.2.5>
  400dc6:	68 14 00 00 00       	pushq  $0x14
  400dcb:	e9 a0 fe ff ff       	jmpq   400c70 <.plt>

0000000000400dd0 <_IO_getc@plt>:
  400dd0:	ff 25 ea 32 20 00    	jmpq   *0x2032ea(%rip)        # 6040c0 <_IO_getc@GLIBC_2.2.5>
  400dd6:	68 15 00 00 00       	pushq  $0x15
  400ddb:	e9 90 fe ff ff       	jmpq   400c70 <.plt>

0000000000400de0 <__isoc99_sscanf@plt>:
  400de0:	ff 25 e2 32 20 00    	jmpq   *0x2032e2(%rip)        # 6040c8 <__isoc99_sscanf@GLIBC_2.7>
  400de6:	68 16 00 00 00       	pushq  $0x16
  400deb:	e9 80 fe ff ff       	jmpq   400c70 <.plt>

0000000000400df0 <munmap@plt>:
  400df0:	ff 25 da 32 20 00    	jmpq   *0x2032da(%rip)        # 6040d0 <munmap@GLIBC_2.2.5>
  400df6:	68 17 00 00 00       	pushq  $0x17
  400dfb:	e9 70 fe ff ff       	jmpq   400c70 <.plt>

0000000000400e00 <__printf_chk@plt>:
  400e00:	ff 25 d2 32 20 00    	jmpq   *0x2032d2(%rip)        # 6040d8 <__printf_chk@GLIBC_2.3.4>
  400e06:	68 18 00 00 00       	pushq  $0x18
  400e0b:	e9 60 fe ff ff       	jmpq   400c70 <.plt>

0000000000400e10 <fopen@plt>:
  400e10:	ff 25 ca 32 20 00    	jmpq   *0x2032ca(%rip)        # 6040e0 <fopen@GLIBC_2.2.5>
  400e16:	68 19 00 00 00       	pushq  $0x19
  400e1b:	e9 50 fe ff ff       	jmpq   400c70 <.plt>

0000000000400e20 <getopt@plt>:
  400e20:	ff 25 c2 32 20 00    	jmpq   *0x2032c2(%rip)        # 6040e8 <getopt@GLIBC_2.2.5>
  400e26:	68 1a 00 00 00       	pushq  $0x1a
  400e2b:	e9 40 fe ff ff       	jmpq   400c70 <.plt>

0000000000400e30 <strtoul@plt>:
  400e30:	ff 25 ba 32 20 00    	jmpq   *0x2032ba(%rip)        # 6040f0 <strtoul@GLIBC_2.2.5>
  400e36:	68 1b 00 00 00       	pushq  $0x1b
  400e3b:	e9 30 fe ff ff       	jmpq   400c70 <.plt>

0000000000400e40 <gethostname@plt>:
  400e40:	ff 25 b2 32 20 00    	jmpq   *0x2032b2(%rip)        # 6040f8 <gethostname@GLIBC_2.2.5>
  400e46:	68 1c 00 00 00       	pushq  $0x1c
  400e4b:	e9 20 fe ff ff       	jmpq   400c70 <.plt>

0000000000400e50 <exit@plt>:
  400e50:	ff 25 aa 32 20 00    	jmpq   *0x2032aa(%rip)        # 604100 <exit@GLIBC_2.2.5>
  400e56:	68 1d 00 00 00       	pushq  $0x1d
  400e5b:	e9 10 fe ff ff       	jmpq   400c70 <.plt>

0000000000400e60 <connect@plt>:
  400e60:	ff 25 a2 32 20 00    	jmpq   *0x2032a2(%rip)        # 604108 <connect@GLIBC_2.2.5>
  400e66:	68 1e 00 00 00       	pushq  $0x1e
  400e6b:	e9 00 fe ff ff       	jmpq   400c70 <.plt>

0000000000400e70 <__fprintf_chk@plt>:
  400e70:	ff 25 9a 32 20 00    	jmpq   *0x20329a(%rip)        # 604110 <__fprintf_chk@GLIBC_2.3.4>
  400e76:	68 1f 00 00 00       	pushq  $0x1f
  400e7b:	e9 f0 fd ff ff       	jmpq   400c70 <.plt>

0000000000400e80 <__sprintf_chk@plt>:
  400e80:	ff 25 92 32 20 00    	jmpq   *0x203292(%rip)        # 604118 <__sprintf_chk@GLIBC_2.3.4>
  400e86:	68 20 00 00 00       	pushq  $0x20
  400e8b:	e9 e0 fd ff ff       	jmpq   400c70 <.plt>

0000000000400e90 <socket@plt>:
  400e90:	ff 25 8a 32 20 00    	jmpq   *0x20328a(%rip)        # 604120 <socket@GLIBC_2.2.5>
  400e96:	68 21 00 00 00       	pushq  $0x21
  400e9b:	e9 d0 fd ff ff       	jmpq   400c70 <.plt>

Disassembly of section .plt.got:

0000000000400ea0 <__gmon_start__@plt>:
  400ea0:	ff 25 52 31 20 00    	jmpq   *0x203152(%rip)        # 603ff8 <__gmon_start__>
  400ea6:	66 90                	xchg   %ax,%ax

Disassembly of section .text:

0000000000400eb0 <_start>:
  400eb0:	31 ed                	xor    %ebp,%ebp
  400eb2:	49 89 d1             	mov    %rdx,%r9
  400eb5:	5e                   	pop    %rsi
  400eb6:	48 89 e2             	mov    %rsp,%rdx
  400eb9:	48 83 e4 f0          	and    $0xfffffffffffffff0,%rsp
  400ebd:	50                   	push   %rax
  400ebe:	54                   	push   %rsp
  400ebf:	49 c7 c0 20 2e 40 00 	mov    $0x402e20,%r8
  400ec6:	48 c7 c1 b0 2d 40 00 	mov    $0x402db0,%rcx
  400ecd:	48 c7 c7 b5 11 40 00 	mov    $0x4011b5,%rdi
  400ed4:	e8 77 fe ff ff       	callq  400d50 <__libc_start_main@plt>
  400ed9:	f4                   	hlt    
  400eda:	66 0f 1f 44 00 00    	nopw   0x0(%rax,%rax,1)

0000000000400ee0 <deregister_tm_clones>:
  400ee0:	b8 b7 44 60 00       	mov    $0x6044b7,%eax
  400ee5:	55                   	push   %rbp
  400ee6:	48 2d b0 44 60 00    	sub    $0x6044b0,%rax
  400eec:	48 83 f8 0e          	cmp    $0xe,%rax
  400ef0:	48 89 e5             	mov    %rsp,%rbp
  400ef3:	76 1b                	jbe    400f10 <deregister_tm_clones+0x30>
  400ef5:	b8 00 00 00 00       	mov    $0x0,%eax
  400efa:	48 85 c0             	test   %rax,%rax
  400efd:	74 11                	je     400f10 <deregister_tm_clones+0x30>
  400eff:	5d                   	pop    %rbp
  400f00:	bf b0 44 60 00       	mov    $0x6044b0,%edi
  400f05:	ff e0                	jmpq   *%rax
  400f07:	66 0f 1f 84 00 00 00 	nopw   0x0(%rax,%rax,1)
  400f0e:	00 00 
  400f10:	5d                   	pop    %rbp
  400f11:	c3                   	retq   
  400f12:	0f 1f 40 00          	nopl   0x0(%rax)
  400f16:	66 2e 0f 1f 84 00 00 	nopw   %cs:0x0(%rax,%rax,1)
  400f1d:	00 00 00 

0000000000400f20 <register_tm_clones>:
  400f20:	be b0 44 60 00       	mov    $0x6044b0,%esi
  400f25:	55                   	push   %rbp
  400f26:	48 81 ee b0 44 60 00 	sub    $0x6044b0,%rsi
  400f2d:	48 c1 fe 03          	sar    $0x3,%rsi
  400f31:	48 89 e5             	mov    %rsp,%rbp
  400f34:	48 89 f0             	mov    %rsi,%rax
  400f37:	48 c1 e8 3f          	shr    $0x3f,%rax
  400f3b:	48 01 c6             	add    %rax,%rsi
  400f3e:	48 d1 fe             	sar    %rsi
  400f41:	74 15                	je     400f58 <register_tm_clones+0x38>
  400f43:	b8 00 00 00 00       	mov    $0x0,%eax
  400f48:	48 85 c0             	test   %rax,%rax
  400f4b:	74 0b                	je     400f58 <register_tm_clones+0x38>
  400f4d:	5d                   	pop    %rbp
  400f4e:	bf b0 44 60 00       	mov    $0x6044b0,%edi
  400f53:	ff e0                	jmpq   *%rax
  400f55:	0f 1f 00             	nopl   (%rax)
  400f58:	5d                   	pop    %rbp
  400f59:	c3                   	retq   
  400f5a:	66 0f 1f 44 00 00    	nopw   0x0(%rax,%rax,1)

0000000000400f60 <__do_global_dtors_aux>:
  400f60:	80 3d 81 35 20 00 00 	cmpb   $0x0,0x203581(%rip)        # 6044e8 <completed.7594>
  400f67:	75 11                	jne    400f7a <__do_global_dtors_aux+0x1a>
  400f69:	55                   	push   %rbp
  400f6a:	48 89 e5             	mov    %rsp,%rbp
  400f6d:	e8 6e ff ff ff       	callq  400ee0 <deregister_tm_clones>
  400f72:	5d                   	pop    %rbp
  400f73:	c6 05 6e 35 20 00 01 	movb   $0x1,0x20356e(%rip)        # 6044e8 <completed.7594>
  400f7a:	f3 c3                	repz retq 
  400f7c:	0f 1f 40 00          	nopl   0x0(%rax)

0000000000400f80 <frame_dummy>:
  400f80:	bf 20 3e 60 00       	mov    $0x603e20,%edi
  400f85:	48 83 3f 00          	cmpq   $0x0,(%rdi)
  400f89:	75 05                	jne    400f90 <frame_dummy+0x10>
  400f8b:	eb 93                	jmp    400f20 <register_tm_clones>
  400f8d:	0f 1f 00             	nopl   (%rax)
  400f90:	b8 00 00 00 00       	mov    $0x0,%eax
  400f95:	48 85 c0             	test   %rax,%rax
  400f98:	74 f1                	je     400f8b <frame_dummy+0xb>
  400f9a:	55                   	push   %rbp
  400f9b:	48 89 e5             	mov    %rsp,%rbp
  400f9e:	ff d0                	callq  *%rax
  400fa0:	5d                   	pop    %rbp
  400fa1:	e9 7a ff ff ff       	jmpq   400f20 <register_tm_clones>

0000000000400fa6 <usage>:
  400fa6:	48 83 ec 08          	sub    $0x8,%rsp
  400faa:	48 89 fa             	mov    %rdi,%rdx
  400fad:	83 3d 74 35 20 00 00 	cmpl   $0x0,0x203574(%rip)        # 604528 <is_checker>
  400fb4:	74 3e                	je     400ff4 <usage+0x4e>
  400fb6:	be 38 2e 40 00       	mov    $0x402e38,%esi
  400fbb:	bf 01 00 00 00       	mov    $0x1,%edi
  400fc0:	b8 00 00 00 00       	mov    $0x0,%eax
  400fc5:	e8 36 fe ff ff       	callq  400e00 <__printf_chk@plt>
  400fca:	bf 70 2e 40 00       	mov    $0x402e70,%edi
  400fcf:	e8 fc fc ff ff       	callq  400cd0 <puts@plt>
  400fd4:	bf e8 2f 40 00       	mov    $0x402fe8,%edi
  400fd9:	e8 f2 fc ff ff       	callq  400cd0 <puts@plt>
  400fde:	bf 98 2e 40 00       	mov    $0x402e98,%edi
  400fe3:	e8 e8 fc ff ff       	callq  400cd0 <puts@plt>
  400fe8:	bf 02 30 40 00       	mov    $0x403002,%edi
  400fed:	e8 de fc ff ff       	callq  400cd0 <puts@plt>
  400ff2:	eb 32                	jmp    401026 <usage+0x80>
  400ff4:	be 1e 30 40 00       	mov    $0x40301e,%esi
  400ff9:	bf 01 00 00 00       	mov    $0x1,%edi
  400ffe:	b8 00 00 00 00       	mov    $0x0,%eax
  401003:	e8 f8 fd ff ff       	callq  400e00 <__printf_chk@plt>
  401008:	bf c0 2e 40 00       	mov    $0x402ec0,%edi
  40100d:	e8 be fc ff ff       	callq  400cd0 <puts@plt>
  401012:	bf e8 2e 40 00       	mov    $0x402ee8,%edi
  401017:	e8 b4 fc ff ff       	callq  400cd0 <puts@plt>
  40101c:	bf 3c 30 40 00       	mov    $0x40303c,%edi
  401021:	e8 aa fc ff ff       	callq  400cd0 <puts@plt>
  401026:	bf 00 00 00 00       	mov    $0x0,%edi
  40102b:	e8 20 fe ff ff       	callq  400e50 <exit@plt>

0000000000401030 <initialize_target>:
  401030:	55                   	push   %rbp
  401031:	53                   	push   %rbx
  401032:	48 81 ec 18 21 00 00 	sub    $0x2118,%rsp
  401039:	89 f5                	mov    %esi,%ebp
  40103b:	64 48 8b 04 25 28 00 	mov    %fs:0x28,%rax
  401042:	00 00 
  401044:	48 89 84 24 08 21 00 	mov    %rax,0x2108(%rsp)
  40104b:	00 
  40104c:	31 c0                	xor    %eax,%eax
  40104e:	89 3d c4 34 20 00    	mov    %edi,0x2034c4(%rip)        # 604518 <check_level>
  401054:	8b 3d 0e 31 20 00    	mov    0x20310e(%rip),%edi        # 604168 <target_id>
  40105a:	e8 24 1d 00 00       	callq  402d83 <gencookie>
  40105f:	89 05 bf 34 20 00    	mov    %eax,0x2034bf(%rip)        # 604524 <cookie>
  401065:	89 c7                	mov    %eax,%edi
  401067:	e8 17 1d 00 00       	callq  402d83 <gencookie>
  40106c:	89 05 ae 34 20 00    	mov    %eax,0x2034ae(%rip)        # 604520 <authkey>
  401072:	8b 05 f0 30 20 00    	mov    0x2030f0(%rip),%eax        # 604168 <target_id>
  401078:	8d 78 01             	lea    0x1(%rax),%edi
  40107b:	e8 20 fc ff ff       	callq  400ca0 <srandom@plt>
  401080:	e8 3b fd ff ff       	callq  400dc0 <random@plt>
  401085:	89 c7                	mov    %eax,%edi
  401087:	e8 03 03 00 00       	callq  40138f <scramble>
  40108c:	89 c3                	mov    %eax,%ebx
  40108e:	85 ed                	test   %ebp,%ebp
  401090:	74 18                	je     4010aa <initialize_target+0x7a>
  401092:	bf 00 00 00 00       	mov    $0x0,%edi
  401097:	e8 14 fd ff ff       	callq  400db0 <time@plt>
  40109c:	89 c7                	mov    %eax,%edi
  40109e:	e8 fd fb ff ff       	callq  400ca0 <srandom@plt>
  4010a3:	e8 18 fd ff ff       	callq  400dc0 <random@plt>
  4010a8:	eb 05                	jmp    4010af <initialize_target+0x7f>
  4010aa:	b8 00 00 00 00       	mov    $0x0,%eax
  4010af:	01 c3                	add    %eax,%ebx
  4010b1:	0f b7 db             	movzwl %bx,%ebx
  4010b4:	8d 04 dd 00 01 00 00 	lea    0x100(,%rbx,8),%eax
  4010bb:	89 c0                	mov    %eax,%eax
  4010bd:	48 89 05 dc 33 20 00 	mov    %rax,0x2033dc(%rip)        # 6044a0 <buf_offset>
  4010c4:	c6 05 7d 40 20 00 63 	movb   $0x63,0x20407d(%rip)        # 605148 <target_prefix>
  4010cb:	83 3d d6 33 20 00 00 	cmpl   $0x0,0x2033d6(%rip)        # 6044a8 <notify>
  4010d2:	0f 84 bb 00 00 00    	je     401193 <initialize_target+0x163>
  4010d8:	83 3d 49 34 20 00 00 	cmpl   $0x0,0x203449(%rip)        # 604528 <is_checker>
  4010df:	0f 85 ae 00 00 00    	jne    401193 <initialize_target+0x163>
  4010e5:	be 00 01 00 00       	mov    $0x100,%esi
  4010ea:	48 89 e7             	mov    %rsp,%rdi
  4010ed:	e8 4e fd ff ff       	callq  400e40 <gethostname@plt>
  4010f2:	85 c0                	test   %eax,%eax
  4010f4:	74 25                	je     40111b <initialize_target+0xeb>
  4010f6:	bf 18 2f 40 00       	mov    $0x402f18,%edi
  4010fb:	e8 d0 fb ff ff       	callq  400cd0 <puts@plt>
  401100:	bf 08 00 00 00       	mov    $0x8,%edi
  401105:	e8 46 fd ff ff       	callq  400e50 <exit@plt>
  40110a:	48 89 e6             	mov    %rsp,%rsi
  40110d:	e8 6e fb ff ff       	callq  400c80 <strcasecmp@plt>
  401112:	85 c0                	test   %eax,%eax
  401114:	74 21                	je     401137 <initialize_target+0x107>
  401116:	83 c3 01             	add    $0x1,%ebx
  401119:	eb 05                	jmp    401120 <initialize_target+0xf0>
  40111b:	bb 00 00 00 00       	mov    $0x0,%ebx
  401120:	48 63 c3             	movslq %ebx,%rax
  401123:	48 8b 3c c5 80 41 60 	mov    0x604180(,%rax,8),%rdi
  40112a:	00 
  40112b:	48 85 ff             	test   %rdi,%rdi
  40112e:	75 da                	jne    40110a <initialize_target+0xda>
  401130:	b8 00 00 00 00       	mov    $0x0,%eax
  401135:	eb 05                	jmp    40113c <initialize_target+0x10c>
  401137:	b8 01 00 00 00       	mov    $0x1,%eax
  40113c:	85 c0                	test   %eax,%eax
  40113e:	75 1c                	jne    40115c <initialize_target+0x12c>
  401140:	48 89 e2             	mov    %rsp,%rdx
  401143:	be 50 2f 40 00       	mov    $0x402f50,%esi
  401148:	bf 01 00 00 00       	mov    $0x1,%edi
  40114d:	e8 ae fc ff ff       	callq  400e00 <__printf_chk@plt>
  401152:	bf 08 00 00 00       	mov    $0x8,%edi
  401157:	e8 f4 fc ff ff       	callq  400e50 <exit@plt>
  40115c:	48 8d bc 24 00 01 00 	lea    0x100(%rsp),%rdi
  401163:	00 
  401164:	e8 84 19 00 00       	callq  402aed <init_driver>
  401169:	85 c0                	test   %eax,%eax
  40116b:	79 26                	jns    401193 <initialize_target+0x163>
  40116d:	48 8d 94 24 00 01 00 	lea    0x100(%rsp),%rdx
  401174:	00 
  401175:	be 90 2f 40 00       	mov    $0x402f90,%esi
  40117a:	bf 01 00 00 00       	mov    $0x1,%edi
  40117f:	b8 00 00 00 00       	mov    $0x0,%eax
  401184:	e8 77 fc ff ff       	callq  400e00 <__printf_chk@plt>
  401189:	bf 08 00 00 00       	mov    $0x8,%edi
  40118e:	e8 bd fc ff ff       	callq  400e50 <exit@plt>
  401193:	48 8b 84 24 08 21 00 	mov    0x2108(%rsp),%rax
  40119a:	00 
  40119b:	64 48 33 04 25 28 00 	xor    %fs:0x28,%rax
  4011a2:	00 00 
  4011a4:	74 05                	je     4011ab <initialize_target+0x17b>
  4011a6:	e8 45 fb ff ff       	callq  400cf0 <__stack_chk_fail@plt>
  4011ab:	48 81 c4 18 21 00 00 	add    $0x2118,%rsp
  4011b2:	5b                   	pop    %rbx
  4011b3:	5d                   	pop    %rbp
  4011b4:	c3                   	retq   

00000000004011b5 <main>:
  4011b5:	41 56                	push   %r14
  4011b7:	41 55                	push   %r13
  4011b9:	41 54                	push   %r12
  4011bb:	55                   	push   %rbp
  4011bc:	53                   	push   %rbx
  4011bd:	41 89 fc             	mov    %edi,%r12d
  4011c0:	48 89 f3             	mov    %rsi,%rbx
  4011c3:	be 28 1e 40 00       	mov    $0x401e28,%esi
  4011c8:	bf 0b 00 00 00       	mov    $0xb,%edi
  4011cd:	e8 8e fb ff ff       	callq  400d60 <signal@plt>
  4011d2:	be da 1d 40 00       	mov    $0x401dda,%esi
  4011d7:	bf 07 00 00 00       	mov    $0x7,%edi
  4011dc:	e8 7f fb ff ff       	callq  400d60 <signal@plt>
  4011e1:	be 76 1e 40 00       	mov    $0x401e76,%esi
  4011e6:	bf 04 00 00 00       	mov    $0x4,%edi
  4011eb:	e8 70 fb ff ff       	callq  400d60 <signal@plt>
  4011f0:	83 3d 31 33 20 00 00 	cmpl   $0x0,0x203331(%rip)        # 604528 <is_checker>
  4011f7:	74 20                	je     401219 <main+0x64>
  4011f9:	be c4 1e 40 00       	mov    $0x401ec4,%esi
  4011fe:	bf 0e 00 00 00       	mov    $0xe,%edi
  401203:	e8 58 fb ff ff       	callq  400d60 <signal@plt>
  401208:	bf 05 00 00 00       	mov    $0x5,%edi
  40120d:	e8 0e fb ff ff       	callq  400d20 <alarm@plt>
  401212:	bd 5a 30 40 00       	mov    $0x40305a,%ebp
  401217:	eb 05                	jmp    40121e <main+0x69>
  401219:	bd 55 30 40 00       	mov    $0x403055,%ebp
  40121e:	48 8b 05 9b 32 20 00 	mov    0x20329b(%rip),%rax        # 6044c0 <stdin@@GLIBC_2.2.5>
  401225:	48 89 05 e4 32 20 00 	mov    %rax,0x2032e4(%rip)        # 604510 <infile>
  40122c:	41 bd 00 00 00 00    	mov    $0x0,%r13d
  401232:	41 be 00 00 00 00    	mov    $0x0,%r14d
  401238:	e9 c6 00 00 00       	jmpq   401303 <main+0x14e>
  40123d:	83 e8 61             	sub    $0x61,%eax
  401240:	3c 10                	cmp    $0x10,%al
  401242:	0f 87 9c 00 00 00    	ja     4012e4 <main+0x12f>
  401248:	0f b6 c0             	movzbl %al,%eax
  40124b:	ff 24 c5 a0 30 40 00 	jmpq   *0x4030a0(,%rax,8)
  401252:	48 8b 3b             	mov    (%rbx),%rdi
  401255:	e8 4c fd ff ff       	callq  400fa6 <usage>
  40125a:	be 81 31 40 00       	mov    $0x403181,%esi
  40125f:	48 8b 3d 62 32 20 00 	mov    0x203262(%rip),%rdi        # 6044c8 <optarg@@GLIBC_2.2.5>
  401266:	e8 a5 fb ff ff       	callq  400e10 <fopen@plt>
  40126b:	48 89 05 9e 32 20 00 	mov    %rax,0x20329e(%rip)        # 604510 <infile>
  401272:	48 85 c0             	test   %rax,%rax
  401275:	0f 85 88 00 00 00    	jne    401303 <main+0x14e>
  40127b:	48 8b 0d 46 32 20 00 	mov    0x203246(%rip),%rcx        # 6044c8 <optarg@@GLIBC_2.2.5>
  401282:	ba 62 30 40 00       	mov    $0x403062,%edx
  401287:	be 01 00 00 00       	mov    $0x1,%esi
  40128c:	48 8b 3d 4d 32 20 00 	mov    0x20324d(%rip),%rdi        # 6044e0 <stderr@@GLIBC_2.2.5>
  401293:	e8 d8 fb ff ff       	callq  400e70 <__fprintf_chk@plt>
  401298:	b8 01 00 00 00       	mov    $0x1,%eax
  40129d:	e9 e4 00 00 00       	jmpq   401386 <main+0x1d1>
  4012a2:	ba 10 00 00 00       	mov    $0x10,%edx
  4012a7:	be 00 00 00 00       	mov    $0x0,%esi
  4012ac:	48 8b 3d 15 32 20 00 	mov    0x203215(%rip),%rdi        # 6044c8 <optarg@@GLIBC_2.2.5>
  4012b3:	e8 78 fb ff ff       	callq  400e30 <strtoul@plt>
  4012b8:	41 89 c6             	mov    %eax,%r14d
  4012bb:	eb 46                	jmp    401303 <main+0x14e>
  4012bd:	ba 0a 00 00 00       	mov    $0xa,%edx
  4012c2:	be 00 00 00 00       	mov    $0x0,%esi
  4012c7:	48 8b 3d fa 31 20 00 	mov    0x2031fa(%rip),%rdi        # 6044c8 <optarg@@GLIBC_2.2.5>
  4012ce:	e8 bd fa ff ff       	callq  400d90 <strtol@plt>
  4012d3:	41 89 c5             	mov    %eax,%r13d
  4012d6:	eb 2b                	jmp    401303 <main+0x14e>
  4012d8:	c7 05 c6 31 20 00 00 	movl   $0x0,0x2031c6(%rip)        # 6044a8 <notify>
  4012df:	00 00 00 
  4012e2:	eb 1f                	jmp    401303 <main+0x14e>
  4012e4:	0f be d2             	movsbl %dl,%edx
  4012e7:	be 7f 30 40 00       	mov    $0x40307f,%esi
  4012ec:	bf 01 00 00 00       	mov    $0x1,%edi
  4012f1:	b8 00 00 00 00       	mov    $0x0,%eax
  4012f6:	e8 05 fb ff ff       	callq  400e00 <__printf_chk@plt>
  4012fb:	48 8b 3b             	mov    (%rbx),%rdi
  4012fe:	e8 a3 fc ff ff       	callq  400fa6 <usage>
  401303:	48 89 ea             	mov    %rbp,%rdx
  401306:	48 89 de             	mov    %rbx,%rsi
  401309:	44 89 e7             	mov    %r12d,%edi
  40130c:	e8 0f fb ff ff       	callq  400e20 <getopt@plt>
  401311:	89 c2                	mov    %eax,%edx
  401313:	3c ff                	cmp    $0xff,%al
  401315:	0f 85 22 ff ff ff    	jne    40123d <main+0x88>
  40131b:	be 00 00 00 00       	mov    $0x0,%esi
  401320:	44 89 ef             	mov    %r13d,%edi
  401323:	e8 08 fd ff ff       	callq  401030 <initialize_target>
  401328:	83 3d f9 31 20 00 00 	cmpl   $0x0,0x2031f9(%rip)        # 604528 <is_checker>
  40132f:	74 2a                	je     40135b <main+0x1a6>
  401331:	44 3b 35 e8 31 20 00 	cmp    0x2031e8(%rip),%r14d        # 604520 <authkey>
  401338:	74 21                	je     40135b <main+0x1a6>
  40133a:	44 89 f2             	mov    %r14d,%edx
  40133d:	be b8 2f 40 00       	mov    $0x402fb8,%esi
  401342:	bf 01 00 00 00       	mov    $0x1,%edi
  401347:	b8 00 00 00 00       	mov    $0x0,%eax
  40134c:	e8 af fa ff ff       	callq  400e00 <__printf_chk@plt>
  401351:	b8 00 00 00 00       	mov    $0x0,%eax
  401356:	e8 1b 07 00 00       	callq  401a76 <check_fail>
  40135b:	8b 15 c3 31 20 00    	mov    0x2031c3(%rip),%edx        # 604524 <cookie>
  401361:	be 92 30 40 00       	mov    $0x403092,%esi
  401366:	bf 01 00 00 00       	mov    $0x1,%edi
  40136b:	b8 00 00 00 00       	mov    $0x0,%eax
  401370:	e8 8b fa ff ff       	callq  400e00 <__printf_chk@plt>
  401375:	48 8b 3d 24 31 20 00 	mov    0x203124(%rip),%rdi        # 6044a0 <buf_offset>
  40137c:	e8 43 0c 00 00       	callq  401fc4 <stable_launch>
  401381:	b8 00 00 00 00       	mov    $0x0,%eax
  401386:	5b                   	pop    %rbx
  401387:	5d                   	pop    %rbp
  401388:	41 5c                	pop    %r12
  40138a:	41 5d                	pop    %r13
  40138c:	41 5e                	pop    %r14
  40138e:	c3                   	retq   

000000000040138f <scramble>:
  40138f:	48 83 ec 38          	sub    $0x38,%rsp
  401393:	64 48 8b 04 25 28 00 	mov    %fs:0x28,%rax
  40139a:	00 00 
  40139c:	48 89 44 24 28       	mov    %rax,0x28(%rsp)
  4013a1:	31 c0                	xor    %eax,%eax
  4013a3:	eb 10                	jmp    4013b5 <scramble+0x26>
  4013a5:	69 d0 d1 40 00 00    	imul   $0x40d1,%eax,%edx
  4013ab:	01 fa                	add    %edi,%edx
  4013ad:	89 c1                	mov    %eax,%ecx
  4013af:	89 14 8c             	mov    %edx,(%rsp,%rcx,4)
  4013b2:	83 c0 01             	add    $0x1,%eax
  4013b5:	83 f8 09             	cmp    $0x9,%eax
  4013b8:	76 eb                	jbe    4013a5 <scramble+0x16>
  4013ba:	8b 04 24             	mov    (%rsp),%eax
  4013bd:	69 c0 d8 d4 00 00    	imul   $0xd4d8,%eax,%eax
  4013c3:	89 04 24             	mov    %eax,(%rsp)
  4013c6:	8b 04 24             	mov    (%rsp),%eax
  4013c9:	69 c0 51 3b 00 00    	imul   $0x3b51,%eax,%eax
  4013cf:	89 04 24             	mov    %eax,(%rsp)
  4013d2:	8b 44 24 18          	mov    0x18(%rsp),%eax
  4013d6:	69 c0 c8 8d 00 00    	imul   $0x8dc8,%eax,%eax
  4013dc:	89 44 24 18          	mov    %eax,0x18(%rsp)
  4013e0:	8b 44 24 10          	mov    0x10(%rsp),%eax
  4013e4:	69 c0 01 87 00 00    	imul   $0x8701,%eax,%eax
  4013ea:	89 44 24 10          	mov    %eax,0x10(%rsp)
  4013ee:	8b 44 24 10          	mov    0x10(%rsp),%eax
  4013f2:	69 c0 ca 73 00 00    	imul   $0x73ca,%eax,%eax
  4013f8:	89 44 24 10          	mov    %eax,0x10(%rsp)
  4013fc:	8b 44 24 24          	mov    0x24(%rsp),%eax
  401400:	69 c0 01 c3 00 00    	imul   $0xc301,%eax,%eax
  401406:	89 44 24 24          	mov    %eax,0x24(%rsp)
  40140a:	8b 44 24 04          	mov    0x4(%rsp),%eax
  40140e:	69 c0 3a 9e 00 00    	imul   $0x9e3a,%eax,%eax
  401414:	89 44 24 04          	mov    %eax,0x4(%rsp)
  401418:	8b 44 24 14          	mov    0x14(%rsp),%eax
  40141c:	69 c0 68 94 00 00    	imul   $0x9468,%eax,%eax
  401422:	89 44 24 14          	mov    %eax,0x14(%rsp)
  401426:	8b 44 24 14          	mov    0x14(%rsp),%eax
  40142a:	69 c0 11 68 00 00    	imul   $0x6811,%eax,%eax
  401430:	89 44 24 14          	mov    %eax,0x14(%rsp)
  401434:	8b 44 24 08          	mov    0x8(%rsp),%eax
  401438:	69 c0 23 22 00 00    	imul   $0x2223,%eax,%eax
  40143e:	89 44 24 08          	mov    %eax,0x8(%rsp)
  401442:	8b 44 24 20          	mov    0x20(%rsp),%eax
  401446:	69 c0 de 63 00 00    	imul   $0x63de,%eax,%eax
  40144c:	89 44 24 20          	mov    %eax,0x20(%rsp)
  401450:	8b 44 24 1c          	mov    0x1c(%rsp),%eax
  401454:	69 c0 91 eb 00 00    	imul   $0xeb91,%eax,%eax
  40145a:	89 44 24 1c          	mov    %eax,0x1c(%rsp)
  40145e:	8b 44 24 1c          	mov    0x1c(%rsp),%eax
  401462:	69 c0 ad c4 00 00    	imul   $0xc4ad,%eax,%eax
  401468:	89 44 24 1c          	mov    %eax,0x1c(%rsp)
  40146c:	8b 44 24 20          	mov    0x20(%rsp),%eax
  401470:	69 c0 b4 ff 00 00    	imul   $0xffb4,%eax,%eax
  401476:	89 44 24 20          	mov    %eax,0x20(%rsp)
  40147a:	8b 44 24 10          	mov    0x10(%rsp),%eax
  40147e:	69 c0 7e a2 00 00    	imul   $0xa27e,%eax,%eax
  401484:	89 44 24 10          	mov    %eax,0x10(%rsp)
  401488:	8b 44 24 10          	mov    0x10(%rsp),%eax
  40148c:	69 c0 70 48 00 00    	imul   $0x4870,%eax,%eax
  401492:	89 44 24 10          	mov    %eax,0x10(%rsp)
  401496:	8b 44 24 04          	mov    0x4(%rsp),%eax
  40149a:	69 c0 16 47 00 00    	imul   $0x4716,%eax,%eax
  4014a0:	89 44 24 04          	mov    %eax,0x4(%rsp)
  4014a4:	8b 44 24 20          	mov    0x20(%rsp),%eax
  4014a8:	69 c0 d3 a6 00 00    	imul   $0xa6d3,%eax,%eax
  4014ae:	89 44 24 20          	mov    %eax,0x20(%rsp)
  4014b2:	8b 44 24 20          	mov    0x20(%rsp),%eax
  4014b6:	69 c0 72 4e 00 00    	imul   $0x4e72,%eax,%eax
  4014bc:	89 44 24 20          	mov    %eax,0x20(%rsp)
  4014c0:	8b 44 24 20          	mov    0x20(%rsp),%eax
  4014c4:	69 c0 ce d6 00 00    	imul   $0xd6ce,%eax,%eax
  4014ca:	89 44 24 20          	mov    %eax,0x20(%rsp)
  4014ce:	8b 44 24 1c          	mov    0x1c(%rsp),%eax
  4014d2:	69 c0 58 7e 00 00    	imul   $0x7e58,%eax,%eax
  4014d8:	89 44 24 1c          	mov    %eax,0x1c(%rsp)
  4014dc:	8b 44 24 1c          	mov    0x1c(%rsp),%eax
  4014e0:	69 c0 48 f9 00 00    	imul   $0xf948,%eax,%eax
  4014e6:	89 44 24 1c          	mov    %eax,0x1c(%rsp)
  4014ea:	8b 44 24 08          	mov    0x8(%rsp),%eax
  4014ee:	69 c0 d9 19 00 00    	imul   $0x19d9,%eax,%eax
  4014f4:	89 44 24 08          	mov    %eax,0x8(%rsp)
  4014f8:	8b 44 24 08          	mov    0x8(%rsp),%eax
  4014fc:	69 c0 42 23 00 00    	imul   $0x2342,%eax,%eax
  401502:	89 44 24 08          	mov    %eax,0x8(%rsp)
  401506:	8b 44 24 24          	mov    0x24(%rsp),%eax
  40150a:	69 c0 d7 d2 00 00    	imul   $0xd2d7,%eax,%eax
  401510:	89 44 24 24          	mov    %eax,0x24(%rsp)
  401514:	8b 44 24 1c          	mov    0x1c(%rsp),%eax
  401518:	69 c0 20 a8 00 00    	imul   $0xa820,%eax,%eax
  40151e:	89 44 24 1c          	mov    %eax,0x1c(%rsp)
  401522:	8b 44 24 1c          	mov    0x1c(%rsp),%eax
  401526:	69 c0 c0 11 00 00    	imul   $0x11c0,%eax,%eax
  40152c:	89 44 24 1c          	mov    %eax,0x1c(%rsp)
  401530:	8b 44 24 14          	mov    0x14(%rsp),%eax
  401534:	69 c0 5c 02 00 00    	imul   $0x25c,%eax,%eax
  40153a:	89 44 24 14          	mov    %eax,0x14(%rsp)
  40153e:	8b 44 24 10          	mov    0x10(%rsp),%eax
  401542:	69 c0 1a 03 00 00    	imul   $0x31a,%eax,%eax
  401548:	89 44 24 10          	mov    %eax,0x10(%rsp)
  40154c:	8b 44 24 04          	mov    0x4(%rsp),%eax
  401550:	69 c0 0b de 00 00    	imul   $0xde0b,%eax,%eax
  401556:	89 44 24 04          	mov    %eax,0x4(%rsp)
  40155a:	8b 44 24 04          	mov    0x4(%rsp),%eax
  40155e:	69 c0 ff 4f 00 00    	imul   $0x4fff,%eax,%eax
  401564:	89 44 24 04          	mov    %eax,0x4(%rsp)
  401568:	8b 44 24 1c          	mov    0x1c(%rsp),%eax
  40156c:	69 c0 ef 1c 00 00    	imul   $0x1cef,%eax,%eax
  401572:	89 44 24 1c          	mov    %eax,0x1c(%rsp)
  401576:	8b 44 24 08          	mov    0x8(%rsp),%eax
  40157a:	69 c0 3d aa 00 00    	imul   $0xaa3d,%eax,%eax
  401580:	89 44 24 08          	mov    %eax,0x8(%rsp)
  401584:	8b 44 24 0c          	mov    0xc(%rsp),%eax
  401588:	69 c0 f4 6b 00 00    	imul   $0x6bf4,%eax,%eax
  40158e:	89 44 24 0c          	mov    %eax,0xc(%rsp)
  401592:	8b 44 24 08          	mov    0x8(%rsp),%eax
  401596:	69 c0 96 f1 00 00    	imul   $0xf196,%eax,%eax
  40159c:	89 44 24 08          	mov    %eax,0x8(%rsp)
  4015a0:	8b 44 24 14          	mov    0x14(%rsp),%eax
  4015a4:	69 c0 eb ba 00 00    	imul   $0xbaeb,%eax,%eax
  4015aa:	89 44 24 14          	mov    %eax,0x14(%rsp)
  4015ae:	8b 44 24 04          	mov    0x4(%rsp),%eax
  4015b2:	69 c0 92 dc 00 00    	imul   $0xdc92,%eax,%eax
  4015b8:	89 44 24 04          	mov    %eax,0x4(%rsp)
  4015bc:	8b 44 24 04          	mov    0x4(%rsp),%eax
  4015c0:	69 c0 82 8c 00 00    	imul   $0x8c82,%eax,%eax
  4015c6:	89 44 24 04          	mov    %eax,0x4(%rsp)
  4015ca:	8b 44 24 18          	mov    0x18(%rsp),%eax
  4015ce:	69 c0 e3 41 00 00    	imul   $0x41e3,%eax,%eax
  4015d4:	89 44 24 18          	mov    %eax,0x18(%rsp)
  4015d8:	8b 44 24 18          	mov    0x18(%rsp),%eax
  4015dc:	69 c0 55 78 00 00    	imul   $0x7855,%eax,%eax
  4015e2:	89 44 24 18          	mov    %eax,0x18(%rsp)
  4015e6:	8b 44 24 1c          	mov    0x1c(%rsp),%eax
  4015ea:	69 c0 2a f5 00 00    	imul   $0xf52a,%eax,%eax
  4015f0:	89 44 24 1c          	mov    %eax,0x1c(%rsp)
  4015f4:	8b 44 24 18          	mov    0x18(%rsp),%eax
  4015f8:	69 c0 70 4b 00 00    	imul   $0x4b70,%eax,%eax
  4015fe:	89 44 24 18          	mov    %eax,0x18(%rsp)
  401602:	8b 04 24             	mov    (%rsp),%eax
  401605:	69 c0 26 b4 00 00    	imul   $0xb426,%eax,%eax
  40160b:	89 04 24             	mov    %eax,(%rsp)
  40160e:	8b 44 24 0c          	mov    0xc(%rsp),%eax
  401612:	69 c0 57 dd 00 00    	imul   $0xdd57,%eax,%eax
  401618:	89 44 24 0c          	mov    %eax,0xc(%rsp)
  40161c:	8b 44 24 18          	mov    0x18(%rsp),%eax
  401620:	69 c0 dd 4f 00 00    	imul   $0x4fdd,%eax,%eax
  401626:	89 44 24 18          	mov    %eax,0x18(%rsp)
  40162a:	8b 44 24 20          	mov    0x20(%rsp),%eax
  40162e:	69 c0 da 5c 00 00    	imul   $0x5cda,%eax,%eax
  401634:	89 44 24 20          	mov    %eax,0x20(%rsp)
  401638:	8b 44 24 0c          	mov    0xc(%rsp),%eax
  40163c:	69 c0 de e1 00 00    	imul   $0xe1de,%eax,%eax
  401642:	89 44 24 0c          	mov    %eax,0xc(%rsp)
  401646:	8b 44 24 0c          	mov    0xc(%rsp),%eax
  40164a:	69 c0 f1 36 00 00    	imul   $0x36f1,%eax,%eax
  401650:	89 44 24 0c          	mov    %eax,0xc(%rsp)
  401654:	8b 44 24 14          	mov    0x14(%rsp),%eax
  401658:	69 c0 8c 3d 00 00    	imul   $0x3d8c,%eax,%eax
  40165e:	89 44 24 14          	mov    %eax,0x14(%rsp)
  401662:	8b 44 24 20          	mov    0x20(%rsp),%eax
  401666:	69 c0 ca 84 00 00    	imul   $0x84ca,%eax,%eax
  40166c:	89 44 24 20          	mov    %eax,0x20(%rsp)
  401670:	8b 44 24 24          	mov    0x24(%rsp),%eax
  401674:	69 c0 a8 e5 00 00    	imul   $0xe5a8,%eax,%eax
  40167a:	89 44 24 24          	mov    %eax,0x24(%rsp)
  40167e:	8b 44 24 20          	mov    0x20(%rsp),%eax
  401682:	69 c0 11 9f 00 00    	imul   $0x9f11,%eax,%eax
  401688:	89 44 24 20          	mov    %eax,0x20(%rsp)
  40168c:	8b 44 24 1c          	mov    0x1c(%rsp),%eax
  401690:	69 c0 e9 f3 00 00    	imul   $0xf3e9,%eax,%eax
  401696:	89 44 24 1c          	mov    %eax,0x1c(%rsp)
  40169a:	8b 04 24             	mov    (%rsp),%eax
  40169d:	69 c0 a5 b8 00 00    	imul   $0xb8a5,%eax,%eax
  4016a3:	89 04 24             	mov    %eax,(%rsp)
  4016a6:	8b 44 24 10          	mov    0x10(%rsp),%eax
  4016aa:	69 c0 58 db 00 00    	imul   $0xdb58,%eax,%eax
  4016b0:	89 44 24 10          	mov    %eax,0x10(%rsp)
  4016b4:	8b 44 24 08          	mov    0x8(%rsp),%eax
  4016b8:	69 c0 87 4a 00 00    	imul   $0x4a87,%eax,%eax
  4016be:	89 44 24 08          	mov    %eax,0x8(%rsp)
  4016c2:	8b 44 24 0c          	mov    0xc(%rsp),%eax
  4016c6:	69 c0 6f 51 00 00    	imul   $0x516f,%eax,%eax
  4016cc:	89 44 24 0c          	mov    %eax,0xc(%rsp)
  4016d0:	8b 44 24 04          	mov    0x4(%rsp),%eax
  4016d4:	69 c0 6c d7 00 00    	imul   $0xd76c,%eax,%eax
  4016da:	89 44 24 04          	mov    %eax,0x4(%rsp)
  4016de:	8b 44 24 04          	mov    0x4(%rsp),%eax
  4016e2:	69 c0 c3 e3 00 00    	imul   $0xe3c3,%eax,%eax
  4016e8:	89 44 24 04          	mov    %eax,0x4(%rsp)
  4016ec:	8b 44 24 08          	mov    0x8(%rsp),%eax
  4016f0:	69 c0 d6 bc 00 00    	imul   $0xbcd6,%eax,%eax
  4016f6:	89 44 24 08          	mov    %eax,0x8(%rsp)
  4016fa:	8b 44 24 08          	mov    0x8(%rsp),%eax
  4016fe:	69 c0 25 70 00 00    	imul   $0x7025,%eax,%eax
  401704:	89 44 24 08          	mov    %eax,0x8(%rsp)
  401708:	8b 44 24 1c          	mov    0x1c(%rsp),%eax
  40170c:	69 c0 7c d3 00 00    	imul   $0xd37c,%eax,%eax
  401712:	89 44 24 1c          	mov    %eax,0x1c(%rsp)
  401716:	8b 44 24 20          	mov    0x20(%rsp),%eax
  40171a:	69 c0 7a 93 00 00    	imul   $0x937a,%eax,%eax
  401720:	89 44 24 20          	mov    %eax,0x20(%rsp)
  401724:	8b 44 24 10          	mov    0x10(%rsp),%eax
  401728:	69 c0 1e de 00 00    	imul   $0xde1e,%eax,%eax
  40172e:	89 44 24 10          	mov    %eax,0x10(%rsp)
  401732:	8b 44 24 20          	mov    0x20(%rsp),%eax
  401736:	69 c0 53 ad 00 00    	imul   $0xad53,%eax,%eax
  40173c:	89 44 24 20          	mov    %eax,0x20(%rsp)
  401740:	8b 44 24 04          	mov    0x4(%rsp),%eax
  401744:	8d 14 80             	lea    (%rax,%rax,4),%edx
  401747:	8d 04 d5 00 00 00 00 	lea    0x0(,%rdx,8),%eax
  40174e:	89 44 24 04          	mov    %eax,0x4(%rsp)
  401752:	8b 44 24 20          	mov    0x20(%rsp),%eax
  401756:	69 c0 9e a2 00 00    	imul   $0xa29e,%eax,%eax
  40175c:	89 44 24 20          	mov    %eax,0x20(%rsp)
  401760:	8b 44 24 14          	mov    0x14(%rsp),%eax
  401764:	69 c0 35 55 00 00    	imul   $0x5535,%eax,%eax
  40176a:	89 44 24 14          	mov    %eax,0x14(%rsp)
  40176e:	8b 44 24 08          	mov    0x8(%rsp),%eax
  401772:	69 c0 cd ca 00 00    	imul   $0xcacd,%eax,%eax
  401778:	89 44 24 08          	mov    %eax,0x8(%rsp)
  40177c:	8b 44 24 0c          	mov    0xc(%rsp),%eax
  401780:	69 c0 53 cc 00 00    	imul   $0xcc53,%eax,%eax
  401786:	89 44 24 0c          	mov    %eax,0xc(%rsp)
  40178a:	8b 44 24 10          	mov    0x10(%rsp),%eax
  40178e:	69 c0 d4 3e 00 00    	imul   $0x3ed4,%eax,%eax
  401794:	89 44 24 10          	mov    %eax,0x10(%rsp)
  401798:	8b 44 24 0c          	mov    0xc(%rsp),%eax
  40179c:	69 c0 a7 76 00 00    	imul   $0x76a7,%eax,%eax
  4017a2:	89 44 24 0c          	mov    %eax,0xc(%rsp)
  4017a6:	8b 44 24 14          	mov    0x14(%rsp),%eax
  4017aa:	69 c0 d1 ac 00 00    	imul   $0xacd1,%eax,%eax
  4017b0:	89 44 24 14          	mov    %eax,0x14(%rsp)
  4017b4:	8b 44 24 0c          	mov    0xc(%rsp),%eax
  4017b8:	69 c0 d9 95 00 00    	imul   $0x95d9,%eax,%eax
  4017be:	89 44 24 0c          	mov    %eax,0xc(%rsp)
  4017c2:	8b 44 24 04          	mov    0x4(%rsp),%eax
  4017c6:	69 c0 d6 02 00 00    	imul   $0x2d6,%eax,%eax
  4017cc:	89 44 24 04          	mov    %eax,0x4(%rsp)
  4017d0:	8b 44 24 20          	mov    0x20(%rsp),%eax
  4017d4:	69 c0 35 c4 00 00    	imul   $0xc435,%eax,%eax
  4017da:	89 44 24 20          	mov    %eax,0x20(%rsp)
  4017de:	8b 44 24 20          	mov    0x20(%rsp),%eax
  4017e2:	69 c0 60 6c 00 00    	imul   $0x6c60,%eax,%eax
  4017e8:	89 44 24 20          	mov    %eax,0x20(%rsp)
  4017ec:	ba 00 00 00 00       	mov    $0x0,%edx
  4017f1:	b8 00 00 00 00       	mov    $0x0,%eax
  4017f6:	eb 0a                	jmp    401802 <scramble+0x473>
  4017f8:	89 d1                	mov    %edx,%ecx
  4017fa:	8b 0c 8c             	mov    (%rsp,%rcx,4),%ecx
  4017fd:	01 c8                	add    %ecx,%eax
  4017ff:	83 c2 01             	add    $0x1,%edx
  401802:	83 fa 09             	cmp    $0x9,%edx
  401805:	76 f1                	jbe    4017f8 <scramble+0x469>
  401807:	48 8b 74 24 28       	mov    0x28(%rsp),%rsi
  40180c:	64 48 33 34 25 28 00 	xor    %fs:0x28,%rsi
  401813:	00 00 
  401815:	74 05                	je     40181c <scramble+0x48d>
  401817:	e8 d4 f4 ff ff       	callq  400cf0 <__stack_chk_fail@plt>
  40181c:	48 83 c4 38          	add    $0x38,%rsp
  401820:	c3                   	retq   

0000000000401821 <getbuf>:
  401821:	48 83 ec 38          	sub    $0x38,%rsp
  401825:	48 89 e7             	mov    %rsp,%rdi
  401828:	e8 7e 02 00 00       	callq  401aab <Gets>
  40182d:	b8 01 00 00 00       	mov    $0x1,%eax
  401832:	48 83 c4 38          	add    $0x38,%rsp
  401836:	c3                   	retq   

0000000000401837 <touch1>:
  401837:	48 83 ec 08          	sub    $0x8,%rsp
  40183b:	c7 05 d7 2c 20 00 01 	movl   $0x1,0x202cd7(%rip)        # 60451c <vlevel>
  401842:	00 00 00 
  401845:	bf 83 31 40 00       	mov    $0x403183,%edi
  40184a:	e8 81 f4 ff ff       	callq  400cd0 <puts@plt>
  40184f:	bf 01 00 00 00       	mov    $0x1,%edi
  401854:	e8 97 04 00 00       	callq  401cf0 <validate>
  401859:	bf 00 00 00 00       	mov    $0x0,%edi
  40185e:	e8 ed f5 ff ff       	callq  400e50 <exit@plt>

0000000000401863 <touch2>:
  401863:	48 83 ec 08          	sub    $0x8,%rsp
  401867:	89 fa                	mov    %edi,%edx
  401869:	c7 05 a9 2c 20 00 02 	movl   $0x2,0x202ca9(%rip)        # 60451c <vlevel>
  401870:	00 00 00 
  401873:	39 3d ab 2c 20 00    	cmp    %edi,0x202cab(%rip)        # 604524 <cookie>
  401879:	75 20                	jne    40189b <touch2+0x38>
  40187b:	be a8 31 40 00       	mov    $0x4031a8,%esi
  401880:	bf 01 00 00 00       	mov    $0x1,%edi
  401885:	b8 00 00 00 00       	mov    $0x0,%eax
  40188a:	e8 71 f5 ff ff       	callq  400e00 <__printf_chk@plt>
  40188f:	bf 02 00 00 00       	mov    $0x2,%edi
  401894:	e8 57 04 00 00       	callq  401cf0 <validate>
  401899:	eb 1e                	jmp    4018b9 <touch2+0x56>
  40189b:	be d0 31 40 00       	mov    $0x4031d0,%esi
  4018a0:	bf 01 00 00 00       	mov    $0x1,%edi
  4018a5:	b8 00 00 00 00       	mov    $0x0,%eax
  4018aa:	e8 51 f5 ff ff       	callq  400e00 <__printf_chk@plt>
  4018af:	bf 02 00 00 00       	mov    $0x2,%edi
  4018b4:	e8 f9 04 00 00       	callq  401db2 <fail>
  4018b9:	bf 00 00 00 00       	mov    $0x0,%edi
  4018be:	e8 8d f5 ff ff       	callq  400e50 <exit@plt>

00000000004018c3 <hexmatch>:
  4018c3:	41 54                	push   %r12
  4018c5:	55                   	push   %rbp
  4018c6:	53                   	push   %rbx
  4018c7:	48 83 c4 80          	add    $0xffffffffffffff80,%rsp
  4018cb:	89 fd                	mov    %edi,%ebp
  4018cd:	48 89 f3             	mov    %rsi,%rbx
  4018d0:	64 48 8b 04 25 28 00 	mov    %fs:0x28,%rax
  4018d7:	00 00 
  4018d9:	48 89 44 24 78       	mov    %rax,0x78(%rsp)
  4018de:	31 c0                	xor    %eax,%eax
  4018e0:	e8 db f4 ff ff       	callq  400dc0 <random@plt>
  4018e5:	48 89 c1             	mov    %rax,%rcx
  4018e8:	48 ba 0b d7 a3 70 3d 	movabs $0xa3d70a3d70a3d70b,%rdx
  4018ef:	0a d7 a3 
  4018f2:	48 f7 ea             	imul   %rdx
  4018f5:	48 01 ca             	add    %rcx,%rdx
  4018f8:	48 c1 fa 06          	sar    $0x6,%rdx
  4018fc:	48 89 c8             	mov    %rcx,%rax
  4018ff:	48 c1 f8 3f          	sar    $0x3f,%rax
  401903:	48 29 c2             	sub    %rax,%rdx
  401906:	48 8d 04 92          	lea    (%rdx,%rdx,4),%rax
  40190a:	48 8d 14 80          	lea    (%rax,%rax,4),%rdx
  40190e:	48 8d 04 95 00 00 00 	lea    0x0(,%rdx,4),%rax
  401915:	00 
  401916:	48 29 c1             	sub    %rax,%rcx
  401919:	4c 8d 24 0c          	lea    (%rsp,%rcx,1),%r12
  40191d:	41 89 e8             	mov    %ebp,%r8d
  401920:	b9 a0 31 40 00       	mov    $0x4031a0,%ecx
  401925:	48 c7 c2 ff ff ff ff 	mov    $0xffffffffffffffff,%rdx
  40192c:	be 01 00 00 00       	mov    $0x1,%esi
  401931:	4c 89 e7             	mov    %r12,%rdi
  401934:	b8 00 00 00 00       	mov    $0x0,%eax
  401939:	e8 42 f5 ff ff       	callq  400e80 <__sprintf_chk@plt>
  40193e:	ba 09 00 00 00       	mov    $0x9,%edx
  401943:	4c 89 e6             	mov    %r12,%rsi
  401946:	48 89 df             	mov    %rbx,%rdi
  401949:	e8 62 f3 ff ff       	callq  400cb0 <strncmp@plt>
  40194e:	85 c0                	test   %eax,%eax
  401950:	0f 94 c0             	sete   %al
  401953:	48 8b 5c 24 78       	mov    0x78(%rsp),%rbx
  401958:	64 48 33 1c 25 28 00 	xor    %fs:0x28,%rbx
  40195f:	00 00 
  401961:	74 05                	je     401968 <hexmatch+0xa5>
  401963:	e8 88 f3 ff ff       	callq  400cf0 <__stack_chk_fail@plt>
  401968:	0f b6 c0             	movzbl %al,%eax
  40196b:	48 83 ec 80          	sub    $0xffffffffffffff80,%rsp
  40196f:	5b                   	pop    %rbx
  401970:	5d                   	pop    %rbp
  401971:	41 5c                	pop    %r12
  401973:	c3                   	retq   

0000000000401974 <touch3>:
  401974:	53                   	push   %rbx
  401975:	48 89 fb             	mov    %rdi,%rbx
  401978:	c7 05 9a 2b 20 00 03 	movl   $0x3,0x202b9a(%rip)        # 60451c <vlevel>
  40197f:	00 00 00 
  401982:	48 89 fe             	mov    %rdi,%rsi
  401985:	8b 3d 99 2b 20 00    	mov    0x202b99(%rip),%edi        # 604524 <cookie>
  40198b:	e8 33 ff ff ff       	callq  4018c3 <hexmatch>
  401990:	85 c0                	test   %eax,%eax
  401992:	74 23                	je     4019b7 <touch3+0x43>
  401994:	48 89 da             	mov    %rbx,%rdx
  401997:	be f8 31 40 00       	mov    $0x4031f8,%esi
  40199c:	bf 01 00 00 00       	mov    $0x1,%edi
  4019a1:	b8 00 00 00 00       	mov    $0x0,%eax
  4019a6:	e8 55 f4 ff ff       	callq  400e00 <__printf_chk@plt>
  4019ab:	bf 03 00 00 00       	mov    $0x3,%edi
  4019b0:	e8 3b 03 00 00       	callq  401cf0 <validate>
  4019b5:	eb 21                	jmp    4019d8 <touch3+0x64>
  4019b7:	48 89 da             	mov    %rbx,%rdx
  4019ba:	be 20 32 40 00       	mov    $0x403220,%esi
  4019bf:	bf 01 00 00 00       	mov    $0x1,%edi
  4019c4:	b8 00 00 00 00       	mov    $0x0,%eax
  4019c9:	e8 32 f4 ff ff       	callq  400e00 <__printf_chk@plt>
  4019ce:	bf 03 00 00 00       	mov    $0x3,%edi
  4019d3:	e8 da 03 00 00       	callq  401db2 <fail>
  4019d8:	bf 00 00 00 00       	mov    $0x0,%edi
  4019dd:	e8 6e f4 ff ff       	callq  400e50 <exit@plt>

00000000004019e2 <test>:
  4019e2:	48 83 ec 08          	sub    $0x8,%rsp
  4019e6:	b8 00 00 00 00       	mov    $0x0,%eax
  4019eb:	e8 31 fe ff ff       	callq  401821 <getbuf>
  4019f0:	89 c2                	mov    %eax,%edx
  4019f2:	be 48 32 40 00       	mov    $0x403248,%esi
  4019f7:	bf 01 00 00 00       	mov    $0x1,%edi
  4019fc:	b8 00 00 00 00       	mov    $0x0,%eax
  401a01:	e8 fa f3 ff ff       	callq  400e00 <__printf_chk@plt>
  401a06:	48 83 c4 08          	add    $0x8,%rsp
  401a0a:	c3                   	retq   

0000000000401a0b <save_char>:
  401a0b:	8b 05 33 37 20 00    	mov    0x203733(%rip),%eax        # 605144 <gets_cnt>
  401a11:	3d ff 03 00 00       	cmp    $0x3ff,%eax
  401a16:	7f 49                	jg     401a61 <save_char+0x56>
  401a18:	8d 14 40             	lea    (%rax,%rax,2),%edx
  401a1b:	89 f9                	mov    %edi,%ecx
  401a1d:	c0 e9 04             	shr    $0x4,%cl
  401a20:	83 e1 0f             	and    $0xf,%ecx
  401a23:	0f b6 b1 70 35 40 00 	movzbl 0x403570(%rcx),%esi
  401a2a:	48 63 ca             	movslq %edx,%rcx
  401a2d:	40 88 b1 40 45 60 00 	mov    %sil,0x604540(%rcx)
  401a34:	8d 4a 01             	lea    0x1(%rdx),%ecx
  401a37:	83 e7 0f             	and    $0xf,%edi
  401a3a:	0f b6 b7 70 35 40 00 	movzbl 0x403570(%rdi),%esi
  401a41:	48 63 c9             	movslq %ecx,%rcx
  401a44:	40 88 b1 40 45 60 00 	mov    %sil,0x604540(%rcx)
  401a4b:	83 c2 02             	add    $0x2,%edx
  401a4e:	48 63 d2             	movslq %edx,%rdx
  401a51:	c6 82 40 45 60 00 20 	movb   $0x20,0x604540(%rdx)
  401a58:	83 c0 01             	add    $0x1,%eax
  401a5b:	89 05 e3 36 20 00    	mov    %eax,0x2036e3(%rip)        # 605144 <gets_cnt>
  401a61:	f3 c3                	repz retq 

0000000000401a63 <save_term>:
  401a63:	8b 05 db 36 20 00    	mov    0x2036db(%rip),%eax        # 605144 <gets_cnt>
  401a69:	8d 04 40             	lea    (%rax,%rax,2),%eax
  401a6c:	48 98                	cltq   
  401a6e:	c6 80 40 45 60 00 00 	movb   $0x0,0x604540(%rax)
  401a75:	c3                   	retq   

0000000000401a76 <check_fail>:
  401a76:	48 83 ec 08          	sub    $0x8,%rsp
  401a7a:	0f be 15 c7 36 20 00 	movsbl 0x2036c7(%rip),%edx        # 605148 <target_prefix>
  401a81:	41 b8 40 45 60 00    	mov    $0x604540,%r8d
  401a87:	8b 0d 8b 2a 20 00    	mov    0x202a8b(%rip),%ecx        # 604518 <check_level>
  401a8d:	be 6b 32 40 00       	mov    $0x40326b,%esi
  401a92:	bf 01 00 00 00       	mov    $0x1,%edi
  401a97:	b8 00 00 00 00       	mov    $0x0,%eax
  401a9c:	e8 5f f3 ff ff       	callq  400e00 <__printf_chk@plt>
  401aa1:	bf 01 00 00 00       	mov    $0x1,%edi
  401aa6:	e8 a5 f3 ff ff       	callq  400e50 <exit@plt>

0000000000401aab <Gets>:
  401aab:	41 54                	push   %r12
  401aad:	55                   	push   %rbp
  401aae:	53                   	push   %rbx
  401aaf:	49 89 fc             	mov    %rdi,%r12
  401ab2:	c7 05 88 36 20 00 00 	movl   $0x0,0x203688(%rip)        # 605144 <gets_cnt>
  401ab9:	00 00 00 
  401abc:	48 89 fb             	mov    %rdi,%rbx
  401abf:	eb 11                	jmp    401ad2 <Gets+0x27>
  401ac1:	48 8d 6b 01          	lea    0x1(%rbx),%rbp
  401ac5:	88 03                	mov    %al,(%rbx)
  401ac7:	0f b6 f8             	movzbl %al,%edi
  401aca:	e8 3c ff ff ff       	callq  401a0b <save_char>
  401acf:	48 89 eb             	mov    %rbp,%rbx
  401ad2:	48 8b 3d 37 2a 20 00 	mov    0x202a37(%rip),%rdi        # 604510 <infile>
  401ad9:	e8 f2 f2 ff ff       	callq  400dd0 <_IO_getc@plt>
  401ade:	83 f8 ff             	cmp    $0xffffffff,%eax
  401ae1:	74 05                	je     401ae8 <Gets+0x3d>
  401ae3:	83 f8 0a             	cmp    $0xa,%eax
  401ae6:	75 d9                	jne    401ac1 <Gets+0x16>
  401ae8:	c6 03 00             	movb   $0x0,(%rbx)
  401aeb:	b8 00 00 00 00       	mov    $0x0,%eax
  401af0:	e8 6e ff ff ff       	callq  401a63 <save_term>
  401af5:	4c 89 e0             	mov    %r12,%rax
  401af8:	5b                   	pop    %rbx
  401af9:	5d                   	pop    %rbp
  401afa:	41 5c                	pop    %r12
  401afc:	c3                   	retq   

0000000000401afd <notify_server>:
  401afd:	53                   	push   %rbx
  401afe:	48 81 ec 10 40 00 00 	sub    $0x4010,%rsp
  401b05:	64 48 8b 04 25 28 00 	mov    %fs:0x28,%rax
  401b0c:	00 00 
  401b0e:	48 89 84 24 08 40 00 	mov    %rax,0x4008(%rsp)
  401b15:	00 
  401b16:	31 c0                	xor    %eax,%eax
  401b18:	83 3d 09 2a 20 00 00 	cmpl   $0x0,0x202a09(%rip)        # 604528 <is_checker>
  401b1f:	0f 85 aa 01 00 00    	jne    401ccf <notify_server+0x1d2>
  401b25:	89 fb                	mov    %edi,%ebx
  401b27:	8b 05 17 36 20 00    	mov    0x203617(%rip),%eax        # 605144 <gets_cnt>
  401b2d:	83 c0 64             	add    $0x64,%eax
  401b30:	3d 00 20 00 00       	cmp    $0x2000,%eax
  401b35:	7e 1e                	jle    401b55 <notify_server+0x58>
  401b37:	be a0 33 40 00       	mov    $0x4033a0,%esi
  401b3c:	bf 01 00 00 00       	mov    $0x1,%edi
  401b41:	b8 00 00 00 00       	mov    $0x0,%eax
  401b46:	e8 b5 f2 ff ff       	callq  400e00 <__printf_chk@plt>
  401b4b:	bf 01 00 00 00       	mov    $0x1,%edi
  401b50:	e8 fb f2 ff ff       	callq  400e50 <exit@plt>
  401b55:	0f be 05 ec 35 20 00 	movsbl 0x2035ec(%rip),%eax        # 605148 <target_prefix>
  401b5c:	83 3d 45 29 20 00 00 	cmpl   $0x0,0x202945(%rip)        # 6044a8 <notify>
  401b63:	74 08                	je     401b6d <notify_server+0x70>
  401b65:	8b 15 b5 29 20 00    	mov    0x2029b5(%rip),%edx        # 604520 <authkey>
  401b6b:	eb 05                	jmp    401b72 <notify_server+0x75>
  401b6d:	ba ff ff ff ff       	mov    $0xffffffff,%edx
  401b72:	85 db                	test   %ebx,%ebx
  401b74:	74 08                	je     401b7e <notify_server+0x81>
  401b76:	41 b9 81 32 40 00    	mov    $0x403281,%r9d
  401b7c:	eb 06                	jmp    401b84 <notify_server+0x87>
  401b7e:	41 b9 86 32 40 00    	mov    $0x403286,%r9d
  401b84:	68 40 45 60 00       	pushq  $0x604540
  401b89:	56                   	push   %rsi
  401b8a:	50                   	push   %rax
  401b8b:	52                   	push   %rdx
  401b8c:	44 8b 05 d5 25 20 00 	mov    0x2025d5(%rip),%r8d        # 604168 <target_id>
  401b93:	b9 8b 32 40 00       	mov    $0x40328b,%ecx
  401b98:	ba 00 20 00 00       	mov    $0x2000,%edx
  401b9d:	be 01 00 00 00       	mov    $0x1,%esi
  401ba2:	48 8d 7c 24 20       	lea    0x20(%rsp),%rdi
  401ba7:	b8 00 00 00 00       	mov    $0x0,%eax
  401bac:	e8 cf f2 ff ff       	callq  400e80 <__sprintf_chk@plt>
  401bb1:	48 83 c4 20          	add    $0x20,%rsp
  401bb5:	83 3d ec 28 20 00 00 	cmpl   $0x0,0x2028ec(%rip)        # 6044a8 <notify>
  401bbc:	0f 84 81 00 00 00    	je     401c43 <notify_server+0x146>
  401bc2:	85 db                	test   %ebx,%ebx
  401bc4:	74 6e                	je     401c34 <notify_server+0x137>
  401bc6:	4c 8d 8c 24 00 20 00 	lea    0x2000(%rsp),%r9
  401bcd:	00 
  401bce:	41 b8 00 00 00 00    	mov    $0x0,%r8d
  401bd4:	48 89 e1             	mov    %rsp,%rcx
  401bd7:	48 8b 15 92 25 20 00 	mov    0x202592(%rip),%rdx        # 604170 <lab>
  401bde:	48 8b 35 93 25 20 00 	mov    0x202593(%rip),%rsi        # 604178 <course>
  401be5:	48 8b 3d 74 25 20 00 	mov    0x202574(%rip),%rdi        # 604160 <user_id>
  401bec:	e8 ef 10 00 00       	callq  402ce0 <driver_post>
  401bf1:	85 c0                	test   %eax,%eax
  401bf3:	79 26                	jns    401c1b <notify_server+0x11e>
  401bf5:	48 8d 94 24 00 20 00 	lea    0x2000(%rsp),%rdx
  401bfc:	00 
  401bfd:	be a7 32 40 00       	mov    $0x4032a7,%esi
  401c02:	bf 01 00 00 00       	mov    $0x1,%edi
  401c07:	b8 00 00 00 00       	mov    $0x0,%eax
  401c0c:	e8 ef f1 ff ff       	callq  400e00 <__printf_chk@plt>
  401c11:	bf 01 00 00 00       	mov    $0x1,%edi
  401c16:	e8 35 f2 ff ff       	callq  400e50 <exit@plt>
  401c1b:	bf d0 33 40 00       	mov    $0x4033d0,%edi
  401c20:	e8 ab f0 ff ff       	callq  400cd0 <puts@plt>
  401c25:	bf b3 32 40 00       	mov    $0x4032b3,%edi
  401c2a:	e8 a1 f0 ff ff       	callq  400cd0 <puts@plt>
  401c2f:	e9 9b 00 00 00       	jmpq   401ccf <notify_server+0x1d2>
  401c34:	bf bd 32 40 00       	mov    $0x4032bd,%edi
  401c39:	e8 92 f0 ff ff       	callq  400cd0 <puts@plt>
  401c3e:	e9 8c 00 00 00       	jmpq   401ccf <notify_server+0x1d2>
  401c43:	85 db                	test   %ebx,%ebx
  401c45:	74 07                	je     401c4e <notify_server+0x151>
  401c47:	ba 81 32 40 00       	mov    $0x403281,%edx
  401c4c:	eb 05                	jmp    401c53 <notify_server+0x156>
  401c4e:	ba 86 32 40 00       	mov    $0x403286,%edx
  401c53:	be 08 34 40 00       	mov    $0x403408,%esi
  401c58:	bf 01 00 00 00       	mov    $0x1,%edi
  401c5d:	b8 00 00 00 00       	mov    $0x0,%eax
  401c62:	e8 99 f1 ff ff       	callq  400e00 <__printf_chk@plt>
  401c67:	48 8b 15 f2 24 20 00 	mov    0x2024f2(%rip),%rdx        # 604160 <user_id>
  401c6e:	be c4 32 40 00       	mov    $0x4032c4,%esi
  401c73:	bf 01 00 00 00       	mov    $0x1,%edi
  401c78:	b8 00 00 00 00       	mov    $0x0,%eax
  401c7d:	e8 7e f1 ff ff       	callq  400e00 <__printf_chk@plt>
  401c82:	48 8b 15 ef 24 20 00 	mov    0x2024ef(%rip),%rdx        # 604178 <course>
  401c89:	be d1 32 40 00       	mov    $0x4032d1,%esi
  401c8e:	bf 01 00 00 00       	mov    $0x1,%edi
  401c93:	b8 00 00 00 00       	mov    $0x0,%eax
  401c98:	e8 63 f1 ff ff       	callq  400e00 <__printf_chk@plt>
  401c9d:	48 8b 15 cc 24 20 00 	mov    0x2024cc(%rip),%rdx        # 604170 <lab>
  401ca4:	be dd 32 40 00       	mov    $0x4032dd,%esi
  401ca9:	bf 01 00 00 00       	mov    $0x1,%edi
  401cae:	b8 00 00 00 00       	mov    $0x0,%eax
  401cb3:	e8 48 f1 ff ff       	callq  400e00 <__printf_chk@plt>
  401cb8:	48 89 e2             	mov    %rsp,%rdx
  401cbb:	be e6 32 40 00       	mov    $0x4032e6,%esi
  401cc0:	bf 01 00 00 00       	mov    $0x1,%edi
  401cc5:	b8 00 00 00 00       	mov    $0x0,%eax
  401cca:	e8 31 f1 ff ff       	callq  400e00 <__printf_chk@plt>
  401ccf:	48 8b 84 24 08 40 00 	mov    0x4008(%rsp),%rax
  401cd6:	00 
  401cd7:	64 48 33 04 25 28 00 	xor    %fs:0x28,%rax
  401cde:	00 00 
  401ce0:	74 05                	je     401ce7 <notify_server+0x1ea>
  401ce2:	e8 09 f0 ff ff       	callq  400cf0 <__stack_chk_fail@plt>
  401ce7:	48 81 c4 10 40 00 00 	add    $0x4010,%rsp
  401cee:	5b                   	pop    %rbx
  401cef:	c3                   	retq   

0000000000401cf0 <validate>:
  401cf0:	53                   	push   %rbx
  401cf1:	89 fb                	mov    %edi,%ebx
  401cf3:	83 3d 2e 28 20 00 00 	cmpl   $0x0,0x20282e(%rip)        # 604528 <is_checker>
  401cfa:	74 6b                	je     401d67 <validate+0x77>
  401cfc:	39 3d 1a 28 20 00    	cmp    %edi,0x20281a(%rip)        # 60451c <vlevel>
  401d02:	74 14                	je     401d18 <validate+0x28>
  401d04:	bf f2 32 40 00       	mov    $0x4032f2,%edi
  401d09:	e8 c2 ef ff ff       	callq  400cd0 <puts@plt>
  401d0e:	b8 00 00 00 00       	mov    $0x0,%eax
  401d13:	e8 5e fd ff ff       	callq  401a76 <check_fail>
  401d18:	8b 15 fa 27 20 00    	mov    0x2027fa(%rip),%edx        # 604518 <check_level>
  401d1e:	39 d7                	cmp    %edx,%edi
  401d20:	74 20                	je     401d42 <validate+0x52>
  401d22:	89 f9                	mov    %edi,%ecx
  401d24:	be 30 34 40 00       	mov    $0x403430,%esi
  401d29:	bf 01 00 00 00       	mov    $0x1,%edi
  401d2e:	b8 00 00 00 00       	mov    $0x0,%eax
  401d33:	e8 c8 f0 ff ff       	callq  400e00 <__printf_chk@plt>
  401d38:	b8 00 00 00 00       	mov    $0x0,%eax
  401d3d:	e8 34 fd ff ff       	callq  401a76 <check_fail>
  401d42:	0f be 15 ff 33 20 00 	movsbl 0x2033ff(%rip),%edx        # 605148 <target_prefix>
  401d49:	41 b8 40 45 60 00    	mov    $0x604540,%r8d
  401d4f:	89 f9                	mov    %edi,%ecx
  401d51:	be 10 33 40 00       	mov    $0x403310,%esi
  401d56:	bf 01 00 00 00       	mov    $0x1,%edi
  401d5b:	b8 00 00 00 00       	mov    $0x0,%eax
  401d60:	e8 9b f0 ff ff       	callq  400e00 <__printf_chk@plt>
  401d65:	eb 49                	jmp    401db0 <validate+0xc0>
  401d67:	3b 3d af 27 20 00    	cmp    0x2027af(%rip),%edi        # 60451c <vlevel>
  401d6d:	74 18                	je     401d87 <validate+0x97>
  401d6f:	bf f2 32 40 00       	mov    $0x4032f2,%edi
  401d74:	e8 57 ef ff ff       	callq  400cd0 <puts@plt>
  401d79:	89 de                	mov    %ebx,%esi
  401d7b:	bf 00 00 00 00       	mov    $0x0,%edi
  401d80:	e8 78 fd ff ff       	callq  401afd <notify_server>
  401d85:	eb 29                	jmp    401db0 <validate+0xc0>
  401d87:	0f be 0d ba 33 20 00 	movsbl 0x2033ba(%rip),%ecx        # 605148 <target_prefix>
  401d8e:	89 fa                	mov    %edi,%edx
  401d90:	be 58 34 40 00       	mov    $0x403458,%esi
  401d95:	bf 01 00 00 00       	mov    $0x1,%edi
  401d9a:	b8 00 00 00 00       	mov    $0x0,%eax
  401d9f:	e8 5c f0 ff ff       	callq  400e00 <__printf_chk@plt>
  401da4:	89 de                	mov    %ebx,%esi
  401da6:	bf 01 00 00 00       	mov    $0x1,%edi
  401dab:	e8 4d fd ff ff       	callq  401afd <notify_server>
  401db0:	5b                   	pop    %rbx
  401db1:	c3                   	retq   

0000000000401db2 <fail>:
  401db2:	48 83 ec 08          	sub    $0x8,%rsp
  401db6:	83 3d 6b 27 20 00 00 	cmpl   $0x0,0x20276b(%rip)        # 604528 <is_checker>
  401dbd:	74 0a                	je     401dc9 <fail+0x17>
  401dbf:	b8 00 00 00 00       	mov    $0x0,%eax
  401dc4:	e8 ad fc ff ff       	callq  401a76 <check_fail>
  401dc9:	89 fe                	mov    %edi,%esi
  401dcb:	bf 00 00 00 00       	mov    $0x0,%edi
  401dd0:	e8 28 fd ff ff       	callq  401afd <notify_server>
  401dd5:	48 83 c4 08          	add    $0x8,%rsp
  401dd9:	c3                   	retq   

0000000000401dda <bushandler>:
  401dda:	48 83 ec 08          	sub    $0x8,%rsp
  401dde:	83 3d 43 27 20 00 00 	cmpl   $0x0,0x202743(%rip)        # 604528 <is_checker>
  401de5:	74 14                	je     401dfb <bushandler+0x21>
  401de7:	bf 25 33 40 00       	mov    $0x403325,%edi
  401dec:	e8 df ee ff ff       	callq  400cd0 <puts@plt>
  401df1:	b8 00 00 00 00       	mov    $0x0,%eax
  401df6:	e8 7b fc ff ff       	callq  401a76 <check_fail>
  401dfb:	bf 90 34 40 00       	mov    $0x403490,%edi
  401e00:	e8 cb ee ff ff       	callq  400cd0 <puts@plt>
  401e05:	bf 2f 33 40 00       	mov    $0x40332f,%edi
  401e0a:	e8 c1 ee ff ff       	callq  400cd0 <puts@plt>
  401e0f:	be 00 00 00 00       	mov    $0x0,%esi
  401e14:	bf 00 00 00 00       	mov    $0x0,%edi
  401e19:	e8 df fc ff ff       	callq  401afd <notify_server>
  401e1e:	bf 01 00 00 00       	mov    $0x1,%edi
  401e23:	e8 28 f0 ff ff       	callq  400e50 <exit@plt>

0000000000401e28 <seghandler>:
  401e28:	48 83 ec 08          	sub    $0x8,%rsp
  401e2c:	83 3d f5 26 20 00 00 	cmpl   $0x0,0x2026f5(%rip)        # 604528 <is_checker>
  401e33:	74 14                	je     401e49 <seghandler+0x21>
  401e35:	bf 45 33 40 00       	mov    $0x403345,%edi
  401e3a:	e8 91 ee ff ff       	callq  400cd0 <puts@plt>
  401e3f:	b8 00 00 00 00       	mov    $0x0,%eax
  401e44:	e8 2d fc ff ff       	callq  401a76 <check_fail>
  401e49:	bf b0 34 40 00       	mov    $0x4034b0,%edi
  401e4e:	e8 7d ee ff ff       	callq  400cd0 <puts@plt>
  401e53:	bf 2f 33 40 00       	mov    $0x40332f,%edi
  401e58:	e8 73 ee ff ff       	callq  400cd0 <puts@plt>
  401e5d:	be 00 00 00 00       	mov    $0x0,%esi
  401e62:	bf 00 00 00 00       	mov    $0x0,%edi
  401e67:	e8 91 fc ff ff       	callq  401afd <notify_server>
  401e6c:	bf 01 00 00 00       	mov    $0x1,%edi
  401e71:	e8 da ef ff ff       	callq  400e50 <exit@plt>

0000000000401e76 <illegalhandler>:
  401e76:	48 83 ec 08          	sub    $0x8,%rsp
  401e7a:	83 3d a7 26 20 00 00 	cmpl   $0x0,0x2026a7(%rip)        # 604528 <is_checker>
  401e81:	74 14                	je     401e97 <illegalhandler+0x21>
  401e83:	bf 58 33 40 00       	mov    $0x403358,%edi
  401e88:	e8 43 ee ff ff       	callq  400cd0 <puts@plt>
  401e8d:	b8 00 00 00 00       	mov    $0x0,%eax
  401e92:	e8 df fb ff ff       	callq  401a76 <check_fail>
  401e97:	bf d8 34 40 00       	mov    $0x4034d8,%edi
  401e9c:	e8 2f ee ff ff       	callq  400cd0 <puts@plt>
  401ea1:	bf 2f 33 40 00       	mov    $0x40332f,%edi
  401ea6:	e8 25 ee ff ff       	callq  400cd0 <puts@plt>
  401eab:	be 00 00 00 00       	mov    $0x0,%esi
  401eb0:	bf 00 00 00 00       	mov    $0x0,%edi
  401eb5:	e8 43 fc ff ff       	callq  401afd <notify_server>
  401eba:	bf 01 00 00 00       	mov    $0x1,%edi
  401ebf:	e8 8c ef ff ff       	callq  400e50 <exit@plt>

0000000000401ec4 <sigalrmhandler>:
  401ec4:	48 83 ec 08          	sub    $0x8,%rsp
  401ec8:	83 3d 59 26 20 00 00 	cmpl   $0x0,0x202659(%rip)        # 604528 <is_checker>
  401ecf:	74 14                	je     401ee5 <sigalrmhandler+0x21>
  401ed1:	bf 6c 33 40 00       	mov    $0x40336c,%edi
  401ed6:	e8 f5 ed ff ff       	callq  400cd0 <puts@plt>
  401edb:	b8 00 00 00 00       	mov    $0x0,%eax
  401ee0:	e8 91 fb ff ff       	callq  401a76 <check_fail>
  401ee5:	ba 05 00 00 00       	mov    $0x5,%edx
  401eea:	be 08 35 40 00       	mov    $0x403508,%esi
  401eef:	bf 01 00 00 00       	mov    $0x1,%edi
  401ef4:	b8 00 00 00 00       	mov    $0x0,%eax
  401ef9:	e8 02 ef ff ff       	callq  400e00 <__printf_chk@plt>
  401efe:	be 00 00 00 00       	mov    $0x0,%esi
  401f03:	bf 00 00 00 00       	mov    $0x0,%edi
  401f08:	e8 f0 fb ff ff       	callq  401afd <notify_server>
  401f0d:	bf 01 00 00 00       	mov    $0x1,%edi
  401f12:	e8 39 ef ff ff       	callq  400e50 <exit@plt>

0000000000401f17 <launch>:
  401f17:	55                   	push   %rbp
  401f18:	48 89 e5             	mov    %rsp,%rbp
  401f1b:	48 83 ec 10          	sub    $0x10,%rsp
  401f1f:	48 89 fa             	mov    %rdi,%rdx
  401f22:	64 48 8b 04 25 28 00 	mov    %fs:0x28,%rax
  401f29:	00 00 
  401f2b:	48 89 45 f8          	mov    %rax,-0x8(%rbp)
  401f2f:	31 c0                	xor    %eax,%eax
  401f31:	48 8d 47 1e          	lea    0x1e(%rdi),%rax
  401f35:	48 83 e0 f0          	and    $0xfffffffffffffff0,%rax
  401f39:	48 29 c4             	sub    %rax,%rsp
  401f3c:	48 8d 7c 24 0f       	lea    0xf(%rsp),%rdi
  401f41:	48 83 e7 f0          	and    $0xfffffffffffffff0,%rdi
  401f45:	be f4 00 00 00       	mov    $0xf4,%esi
  401f4a:	e8 c1 ed ff ff       	callq  400d10 <memset@plt>
  401f4f:	48 8b 05 6a 25 20 00 	mov    0x20256a(%rip),%rax        # 6044c0 <stdin@@GLIBC_2.2.5>
  401f56:	48 39 05 b3 25 20 00 	cmp    %rax,0x2025b3(%rip)        # 604510 <infile>
  401f5d:	75 14                	jne    401f73 <launch+0x5c>
  401f5f:	be 74 33 40 00       	mov    $0x403374,%esi
  401f64:	bf 01 00 00 00       	mov    $0x1,%edi
  401f69:	b8 00 00 00 00       	mov    $0x0,%eax
  401f6e:	e8 8d ee ff ff       	callq  400e00 <__printf_chk@plt>
  401f73:	c7 05 9f 25 20 00 00 	movl   $0x0,0x20259f(%rip)        # 60451c <vlevel>
  401f7a:	00 00 00 
  401f7d:	b8 00 00 00 00       	mov    $0x0,%eax
  401f82:	e8 5b fa ff ff       	callq  4019e2 <test>
  401f87:	83 3d 9a 25 20 00 00 	cmpl   $0x0,0x20259a(%rip)        # 604528 <is_checker>
  401f8e:	74 14                	je     401fa4 <launch+0x8d>
  401f90:	bf 81 33 40 00       	mov    $0x403381,%edi
  401f95:	e8 36 ed ff ff       	callq  400cd0 <puts@plt>
  401f9a:	b8 00 00 00 00       	mov    $0x0,%eax
  401f9f:	e8 d2 fa ff ff       	callq  401a76 <check_fail>
  401fa4:	bf 8c 33 40 00       	mov    $0x40338c,%edi
  401fa9:	e8 22 ed ff ff       	callq  400cd0 <puts@plt>
  401fae:	48 8b 45 f8          	mov    -0x8(%rbp),%rax
  401fb2:	64 48 33 04 25 28 00 	xor    %fs:0x28,%rax
  401fb9:	00 00 
  401fbb:	74 05                	je     401fc2 <launch+0xab>
  401fbd:	e8 2e ed ff ff       	callq  400cf0 <__stack_chk_fail@plt>
  401fc2:	c9                   	leaveq 
  401fc3:	c3                   	retq   

0000000000401fc4 <stable_launch>:
  401fc4:	53                   	push   %rbx
  401fc5:	48 89 3d 3c 25 20 00 	mov    %rdi,0x20253c(%rip)        # 604508 <global_offset>
  401fcc:	41 b9 00 00 00 00    	mov    $0x0,%r9d
  401fd2:	41 b8 00 00 00 00    	mov    $0x0,%r8d
  401fd8:	b9 32 01 00 00       	mov    $0x132,%ecx
  401fdd:	ba 07 00 00 00       	mov    $0x7,%edx
  401fe2:	be 00 00 10 00       	mov    $0x100000,%esi
  401fe7:	bf 00 60 58 55       	mov    $0x55586000,%edi
  401fec:	e8 0f ed ff ff       	callq  400d00 <mmap@plt>
  401ff1:	48 89 c3             	mov    %rax,%rbx
  401ff4:	48 3d 00 60 58 55    	cmp    $0x55586000,%rax
  401ffa:	74 37                	je     402033 <stable_launch+0x6f>
  401ffc:	be 00 00 10 00       	mov    $0x100000,%esi
  402001:	48 89 c7             	mov    %rax,%rdi
  402004:	e8 e7 ed ff ff       	callq  400df0 <munmap@plt>
  402009:	b9 00 60 58 55       	mov    $0x55586000,%ecx
  40200e:	ba 40 35 40 00       	mov    $0x403540,%edx
  402013:	be 01 00 00 00       	mov    $0x1,%esi
  402018:	48 8b 3d c1 24 20 00 	mov    0x2024c1(%rip),%rdi        # 6044e0 <stderr@@GLIBC_2.2.5>
  40201f:	b8 00 00 00 00       	mov    $0x0,%eax
  402024:	e8 47 ee ff ff       	callq  400e70 <__fprintf_chk@plt>
  402029:	bf 01 00 00 00       	mov    $0x1,%edi
  40202e:	e8 1d ee ff ff       	callq  400e50 <exit@plt>
  402033:	48 8d 90 f8 ff 0f 00 	lea    0xffff8(%rax),%rdx
  40203a:	48 89 15 0f 31 20 00 	mov    %rdx,0x20310f(%rip)        # 605150 <stack_top>
  402041:	48 89 e0             	mov    %rsp,%rax
  402044:	48 89 d4             	mov    %rdx,%rsp
  402047:	48 89 c2             	mov    %rax,%rdx
  40204a:	48 89 15 af 24 20 00 	mov    %rdx,0x2024af(%rip)        # 604500 <global_save_stack>
  402051:	48 8b 3d b0 24 20 00 	mov    0x2024b0(%rip),%rdi        # 604508 <global_offset>
  402058:	e8 ba fe ff ff       	callq  401f17 <launch>
  40205d:	48 8b 05 9c 24 20 00 	mov    0x20249c(%rip),%rax        # 604500 <global_save_stack>
  402064:	48 89 c4             	mov    %rax,%rsp
  402067:	be 00 00 10 00       	mov    $0x100000,%esi
  40206c:	48 89 df             	mov    %rbx,%rdi
  40206f:	e8 7c ed ff ff       	callq  400df0 <munmap@plt>
  402074:	5b                   	pop    %rbx
  402075:	c3                   	retq   

0000000000402076 <rio_readinitb>:
  402076:	89 37                	mov    %esi,(%rdi)
  402078:	c7 47 04 00 00 00 00 	movl   $0x0,0x4(%rdi)
  40207f:	48 8d 47 10          	lea    0x10(%rdi),%rax
  402083:	48 89 47 08          	mov    %rax,0x8(%rdi)
  402087:	c3                   	retq   

0000000000402088 <sigalrm_handler>:
  402088:	48 83 ec 08          	sub    $0x8,%rsp
  40208c:	b9 00 00 00 00       	mov    $0x0,%ecx
  402091:	ba 80 35 40 00       	mov    $0x403580,%edx
  402096:	be 01 00 00 00       	mov    $0x1,%esi
  40209b:	48 8b 3d 3e 24 20 00 	mov    0x20243e(%rip),%rdi        # 6044e0 <stderr@@GLIBC_2.2.5>
  4020a2:	b8 00 00 00 00       	mov    $0x0,%eax
  4020a7:	e8 c4 ed ff ff       	callq  400e70 <__fprintf_chk@plt>
  4020ac:	bf 01 00 00 00       	mov    $0x1,%edi
  4020b1:	e8 9a ed ff ff       	callq  400e50 <exit@plt>

00000000004020b6 <rio_writen>:
  4020b6:	41 55                	push   %r13
  4020b8:	41 54                	push   %r12
  4020ba:	55                   	push   %rbp
  4020bb:	53                   	push   %rbx
  4020bc:	48 83 ec 08          	sub    $0x8,%rsp
  4020c0:	41 89 fc             	mov    %edi,%r12d
  4020c3:	48 89 f5             	mov    %rsi,%rbp
  4020c6:	49 89 d5             	mov    %rdx,%r13
  4020c9:	48 89 d3             	mov    %rdx,%rbx
  4020cc:	eb 28                	jmp    4020f6 <rio_writen+0x40>
  4020ce:	48 89 da             	mov    %rbx,%rdx
  4020d1:	48 89 ee             	mov    %rbp,%rsi
  4020d4:	44 89 e7             	mov    %r12d,%edi
  4020d7:	e8 04 ec ff ff       	callq  400ce0 <write@plt>
  4020dc:	48 85 c0             	test   %rax,%rax
  4020df:	7f 0f                	jg     4020f0 <rio_writen+0x3a>
  4020e1:	e8 aa eb ff ff       	callq  400c90 <__errno_location@plt>
  4020e6:	83 38 04             	cmpl   $0x4,(%rax)
  4020e9:	75 15                	jne    402100 <rio_writen+0x4a>
  4020eb:	b8 00 00 00 00       	mov    $0x0,%eax
  4020f0:	48 29 c3             	sub    %rax,%rbx
  4020f3:	48 01 c5             	add    %rax,%rbp
  4020f6:	48 85 db             	test   %rbx,%rbx
  4020f9:	75 d3                	jne    4020ce <rio_writen+0x18>
  4020fb:	4c 89 e8             	mov    %r13,%rax
  4020fe:	eb 07                	jmp    402107 <rio_writen+0x51>
  402100:	48 c7 c0 ff ff ff ff 	mov    $0xffffffffffffffff,%rax
  402107:	48 83 c4 08          	add    $0x8,%rsp
  40210b:	5b                   	pop    %rbx
  40210c:	5d                   	pop    %rbp
  40210d:	41 5c                	pop    %r12
  40210f:	41 5d                	pop    %r13
  402111:	c3                   	retq   

0000000000402112 <rio_read>:
  402112:	41 55                	push   %r13
  402114:	41 54                	push   %r12
  402116:	55                   	push   %rbp
  402117:	53                   	push   %rbx
  402118:	48 83 ec 08          	sub    $0x8,%rsp
  40211c:	48 89 fb             	mov    %rdi,%rbx
  40211f:	49 89 f5             	mov    %rsi,%r13
  402122:	49 89 d4             	mov    %rdx,%r12
  402125:	eb 2e                	jmp    402155 <rio_read+0x43>
  402127:	48 8d 6b 10          	lea    0x10(%rbx),%rbp
  40212b:	8b 3b                	mov    (%rbx),%edi
  40212d:	ba 00 20 00 00       	mov    $0x2000,%edx
  402132:	48 89 ee             	mov    %rbp,%rsi
  402135:	e8 06 ec ff ff       	callq  400d40 <read@plt>
  40213a:	89 43 04             	mov    %eax,0x4(%rbx)
  40213d:	85 c0                	test   %eax,%eax
  40213f:	79 0c                	jns    40214d <rio_read+0x3b>
  402141:	e8 4a eb ff ff       	callq  400c90 <__errno_location@plt>
  402146:	83 38 04             	cmpl   $0x4,(%rax)
  402149:	74 0a                	je     402155 <rio_read+0x43>
  40214b:	eb 37                	jmp    402184 <rio_read+0x72>
  40214d:	85 c0                	test   %eax,%eax
  40214f:	74 3c                	je     40218d <rio_read+0x7b>
  402151:	48 89 6b 08          	mov    %rbp,0x8(%rbx)
  402155:	8b 6b 04             	mov    0x4(%rbx),%ebp
  402158:	85 ed                	test   %ebp,%ebp
  40215a:	7e cb                	jle    402127 <rio_read+0x15>
  40215c:	89 e8                	mov    %ebp,%eax
  40215e:	49 39 c4             	cmp    %rax,%r12
  402161:	77 03                	ja     402166 <rio_read+0x54>
  402163:	44 89 e5             	mov    %r12d,%ebp
  402166:	4c 63 e5             	movslq %ebp,%r12
  402169:	48 8b 73 08          	mov    0x8(%rbx),%rsi
  40216d:	4c 89 e2             	mov    %r12,%rdx
  402170:	4c 89 ef             	mov    %r13,%rdi
  402173:	e8 28 ec ff ff       	callq  400da0 <memcpy@plt>
  402178:	4c 01 63 08          	add    %r12,0x8(%rbx)
  40217c:	29 6b 04             	sub    %ebp,0x4(%rbx)
  40217f:	4c 89 e0             	mov    %r12,%rax
  402182:	eb 0e                	jmp    402192 <rio_read+0x80>
  402184:	48 c7 c0 ff ff ff ff 	mov    $0xffffffffffffffff,%rax
  40218b:	eb 05                	jmp    402192 <rio_read+0x80>
  40218d:	b8 00 00 00 00       	mov    $0x0,%eax
  402192:	48 83 c4 08          	add    $0x8,%rsp
  402196:	5b                   	pop    %rbx
  402197:	5d                   	pop    %rbp
  402198:	41 5c                	pop    %r12
  40219a:	41 5d                	pop    %r13
  40219c:	c3                   	retq   

000000000040219d <rio_readlineb>:
  40219d:	41 55                	push   %r13
  40219f:	41 54                	push   %r12
  4021a1:	55                   	push   %rbp
  4021a2:	53                   	push   %rbx
  4021a3:	48 83 ec 18          	sub    $0x18,%rsp
  4021a7:	49 89 fd             	mov    %rdi,%r13
  4021aa:	48 89 f5             	mov    %rsi,%rbp
  4021ad:	49 89 d4             	mov    %rdx,%r12
  4021b0:	64 48 8b 04 25 28 00 	mov    %fs:0x28,%rax
  4021b7:	00 00 
  4021b9:	48 89 44 24 08       	mov    %rax,0x8(%rsp)
  4021be:	31 c0                	xor    %eax,%eax
  4021c0:	bb 01 00 00 00       	mov    $0x1,%ebx
  4021c5:	eb 3f                	jmp    402206 <rio_readlineb+0x69>
  4021c7:	ba 01 00 00 00       	mov    $0x1,%edx
  4021cc:	48 8d 74 24 07       	lea    0x7(%rsp),%rsi
  4021d1:	4c 89 ef             	mov    %r13,%rdi
  4021d4:	e8 39 ff ff ff       	callq  402112 <rio_read>
  4021d9:	83 f8 01             	cmp    $0x1,%eax
  4021dc:	75 15                	jne    4021f3 <rio_readlineb+0x56>
  4021de:	48 8d 45 01          	lea    0x1(%rbp),%rax
  4021e2:	0f b6 54 24 07       	movzbl 0x7(%rsp),%edx
  4021e7:	88 55 00             	mov    %dl,0x0(%rbp)
  4021ea:	80 7c 24 07 0a       	cmpb   $0xa,0x7(%rsp)
  4021ef:	75 0e                	jne    4021ff <rio_readlineb+0x62>
  4021f1:	eb 1a                	jmp    40220d <rio_readlineb+0x70>
  4021f3:	85 c0                	test   %eax,%eax
  4021f5:	75 22                	jne    402219 <rio_readlineb+0x7c>
  4021f7:	48 83 fb 01          	cmp    $0x1,%rbx
  4021fb:	75 13                	jne    402210 <rio_readlineb+0x73>
  4021fd:	eb 23                	jmp    402222 <rio_readlineb+0x85>
  4021ff:	48 83 c3 01          	add    $0x1,%rbx
  402203:	48 89 c5             	mov    %rax,%rbp
  402206:	4c 39 e3             	cmp    %r12,%rbx
  402209:	72 bc                	jb     4021c7 <rio_readlineb+0x2a>
  40220b:	eb 03                	jmp    402210 <rio_readlineb+0x73>
  40220d:	48 89 c5             	mov    %rax,%rbp
  402210:	c6 45 00 00          	movb   $0x0,0x0(%rbp)
  402214:	48 89 d8             	mov    %rbx,%rax
  402217:	eb 0e                	jmp    402227 <rio_readlineb+0x8a>
  402219:	48 c7 c0 ff ff ff ff 	mov    $0xffffffffffffffff,%rax
  402220:	eb 05                	jmp    402227 <rio_readlineb+0x8a>
  402222:	b8 00 00 00 00       	mov    $0x0,%eax
  402227:	48 8b 4c 24 08       	mov    0x8(%rsp),%rcx
  40222c:	64 48 33 0c 25 28 00 	xor    %fs:0x28,%rcx
  402233:	00 00 
  402235:	74 05                	je     40223c <rio_readlineb+0x9f>
  402237:	e8 b4 ea ff ff       	callq  400cf0 <__stack_chk_fail@plt>
  40223c:	48 83 c4 18          	add    $0x18,%rsp
  402240:	5b                   	pop    %rbx
  402241:	5d                   	pop    %rbp
  402242:	41 5c                	pop    %r12
  402244:	41 5d                	pop    %r13
  402246:	c3                   	retq   

0000000000402247 <urlencode>:
  402247:	41 54                	push   %r12
  402249:	55                   	push   %rbp
  40224a:	53                   	push   %rbx
  40224b:	48 83 ec 10          	sub    $0x10,%rsp
  40224f:	48 89 fb             	mov    %rdi,%rbx
  402252:	48 89 f5             	mov    %rsi,%rbp
  402255:	64 48 8b 04 25 28 00 	mov    %fs:0x28,%rax
  40225c:	00 00 
  40225e:	48 89 44 24 08       	mov    %rax,0x8(%rsp)
  402263:	31 c0                	xor    %eax,%eax
  402265:	48 c7 c1 ff ff ff ff 	mov    $0xffffffffffffffff,%rcx
  40226c:	f2 ae                	repnz scas %es:(%rdi),%al
  40226e:	48 f7 d1             	not    %rcx
  402271:	8d 41 ff             	lea    -0x1(%rcx),%eax
  402274:	e9 aa 00 00 00       	jmpq   402323 <urlencode+0xdc>
  402279:	44 0f b6 03          	movzbl (%rbx),%r8d
  40227d:	41 80 f8 2a          	cmp    $0x2a,%r8b
  402281:	0f 94 c2             	sete   %dl
  402284:	41 80 f8 2d          	cmp    $0x2d,%r8b
  402288:	0f 94 c0             	sete   %al
  40228b:	08 c2                	or     %al,%dl
  40228d:	75 24                	jne    4022b3 <urlencode+0x6c>
  40228f:	41 80 f8 2e          	cmp    $0x2e,%r8b
  402293:	74 1e                	je     4022b3 <urlencode+0x6c>
  402295:	41 80 f8 5f          	cmp    $0x5f,%r8b
  402299:	74 18                	je     4022b3 <urlencode+0x6c>
  40229b:	41 8d 40 d0          	lea    -0x30(%r8),%eax
  40229f:	3c 09                	cmp    $0x9,%al
  4022a1:	76 10                	jbe    4022b3 <urlencode+0x6c>
  4022a3:	41 8d 40 bf          	lea    -0x41(%r8),%eax
  4022a7:	3c 19                	cmp    $0x19,%al
  4022a9:	76 08                	jbe    4022b3 <urlencode+0x6c>
  4022ab:	41 8d 40 9f          	lea    -0x61(%r8),%eax
  4022af:	3c 19                	cmp    $0x19,%al
  4022b1:	77 0a                	ja     4022bd <urlencode+0x76>
  4022b3:	44 88 45 00          	mov    %r8b,0x0(%rbp)
  4022b7:	48 8d 6d 01          	lea    0x1(%rbp),%rbp
  4022bb:	eb 5f                	jmp    40231c <urlencode+0xd5>
  4022bd:	41 80 f8 20          	cmp    $0x20,%r8b
  4022c1:	75 0a                	jne    4022cd <urlencode+0x86>
  4022c3:	c6 45 00 2b          	movb   $0x2b,0x0(%rbp)
  4022c7:	48 8d 6d 01          	lea    0x1(%rbp),%rbp
  4022cb:	eb 4f                	jmp    40231c <urlencode+0xd5>
  4022cd:	41 8d 40 e0          	lea    -0x20(%r8),%eax
  4022d1:	3c 5f                	cmp    $0x5f,%al
  4022d3:	0f 96 c2             	setbe  %dl
  4022d6:	41 80 f8 09          	cmp    $0x9,%r8b
  4022da:	0f 94 c0             	sete   %al
  4022dd:	08 c2                	or     %al,%dl
  4022df:	74 50                	je     402331 <urlencode+0xea>
  4022e1:	45 0f b6 c0          	movzbl %r8b,%r8d
  4022e5:	b9 18 36 40 00       	mov    $0x403618,%ecx
  4022ea:	ba 08 00 00 00       	mov    $0x8,%edx
  4022ef:	be 01 00 00 00       	mov    $0x1,%esi
  4022f4:	48 89 e7             	mov    %rsp,%rdi
  4022f7:	b8 00 00 00 00       	mov    $0x0,%eax
  4022fc:	e8 7f eb ff ff       	callq  400e80 <__sprintf_chk@plt>
  402301:	0f b6 04 24          	movzbl (%rsp),%eax
  402305:	88 45 00             	mov    %al,0x0(%rbp)
  402308:	0f b6 44 24 01       	movzbl 0x1(%rsp),%eax
  40230d:	88 45 01             	mov    %al,0x1(%rbp)
  402310:	0f b6 44 24 02       	movzbl 0x2(%rsp),%eax
  402315:	88 45 02             	mov    %al,0x2(%rbp)
  402318:	48 8d 6d 03          	lea    0x3(%rbp),%rbp
  40231c:	48 83 c3 01          	add    $0x1,%rbx
  402320:	44 89 e0             	mov    %r12d,%eax
  402323:	44 8d 60 ff          	lea    -0x1(%rax),%r12d
  402327:	85 c0                	test   %eax,%eax
  402329:	0f 85 4a ff ff ff    	jne    402279 <urlencode+0x32>
  40232f:	eb 05                	jmp    402336 <urlencode+0xef>
  402331:	b8 ff ff ff ff       	mov    $0xffffffff,%eax
  402336:	48 8b 74 24 08       	mov    0x8(%rsp),%rsi
  40233b:	64 48 33 34 25 28 00 	xor    %fs:0x28,%rsi
  402342:	00 00 
  402344:	74 05                	je     40234b <urlencode+0x104>
  402346:	e8 a5 e9 ff ff       	callq  400cf0 <__stack_chk_fail@plt>
  40234b:	48 83 c4 10          	add    $0x10,%rsp
  40234f:	5b                   	pop    %rbx
  402350:	5d                   	pop    %rbp
  402351:	41 5c                	pop    %r12
  402353:	c3                   	retq   

0000000000402354 <submitr>:
  402354:	41 57                	push   %r15
  402356:	41 56                	push   %r14
  402358:	41 55                	push   %r13
  40235a:	41 54                	push   %r12
  40235c:	55                   	push   %rbp
  40235d:	53                   	push   %rbx
  40235e:	48 81 ec 58 a0 00 00 	sub    $0xa058,%rsp
  402365:	49 89 fc             	mov    %rdi,%r12
  402368:	89 74 24 04          	mov    %esi,0x4(%rsp)
  40236c:	49 89 d7             	mov    %rdx,%r15
  40236f:	49 89 ce             	mov    %rcx,%r14
  402372:	4c 89 44 24 08       	mov    %r8,0x8(%rsp)
  402377:	4d 89 cd             	mov    %r9,%r13
  40237a:	48 8b 9c 24 90 a0 00 	mov    0xa090(%rsp),%rbx
  402381:	00 
  402382:	64 48 8b 04 25 28 00 	mov    %fs:0x28,%rax
  402389:	00 00 
  40238b:	48 89 84 24 48 a0 00 	mov    %rax,0xa048(%rsp)
  402392:	00 
  402393:	31 c0                	xor    %eax,%eax
  402395:	c7 44 24 1c 00 00 00 	movl   $0x0,0x1c(%rsp)
  40239c:	00 
  40239d:	ba 00 00 00 00       	mov    $0x0,%edx
  4023a2:	be 01 00 00 00       	mov    $0x1,%esi
  4023a7:	bf 02 00 00 00       	mov    $0x2,%edi
  4023ac:	e8 df ea ff ff       	callq  400e90 <socket@plt>
  4023b1:	85 c0                	test   %eax,%eax
  4023b3:	79 4e                	jns    402403 <submitr+0xaf>
  4023b5:	48 b8 45 72 72 6f 72 	movabs $0x43203a726f727245,%rax
  4023bc:	3a 20 43 
  4023bf:	48 89 03             	mov    %rax,(%rbx)
  4023c2:	48 b8 6c 69 65 6e 74 	movabs $0x6e7520746e65696c,%rax
  4023c9:	20 75 6e 
  4023cc:	48 89 43 08          	mov    %rax,0x8(%rbx)
  4023d0:	48 b8 61 62 6c 65 20 	movabs $0x206f7420656c6261,%rax
  4023d7:	74 6f 20 
  4023da:	48 89 43 10          	mov    %rax,0x10(%rbx)
  4023de:	48 b8 63 72 65 61 74 	movabs $0x7320657461657263,%rax
  4023e5:	65 20 73 
  4023e8:	48 89 43 18          	mov    %rax,0x18(%rbx)
  4023ec:	c7 43 20 6f 63 6b 65 	movl   $0x656b636f,0x20(%rbx)
  4023f3:	66 c7 43 24 74 00    	movw   $0x74,0x24(%rbx)
  4023f9:	b8 ff ff ff ff       	mov    $0xffffffff,%eax
  4023fe:	e9 97 06 00 00       	jmpq   402a9a <submitr+0x746>
  402403:	89 c5                	mov    %eax,%ebp
  402405:	4c 89 e7             	mov    %r12,%rdi
  402408:	e8 63 e9 ff ff       	callq  400d70 <gethostbyname@plt>
  40240d:	48 85 c0             	test   %rax,%rax
  402410:	75 67                	jne    402479 <submitr+0x125>
  402412:	48 b8 45 72 72 6f 72 	movabs $0x44203a726f727245,%rax
  402419:	3a 20 44 
  40241c:	48 89 03             	mov    %rax,(%rbx)
  40241f:	48 b8 4e 53 20 69 73 	movabs $0x6e7520736920534e,%rax
  402426:	20 75 6e 
  402429:	48 89 43 08          	mov    %rax,0x8(%rbx)
  40242d:	48 b8 61 62 6c 65 20 	movabs $0x206f7420656c6261,%rax
  402434:	74 6f 20 
  402437:	48 89 43 10          	mov    %rax,0x10(%rbx)
  40243b:	48 b8 72 65 73 6f 6c 	movabs $0x2065766c6f736572,%rax
  402442:	76 65 20 
  402445:	48 89 43 18          	mov    %rax,0x18(%rbx)
  402449:	48 b8 73 65 72 76 65 	movabs $0x6120726576726573,%rax
  402450:	72 20 61 
  402453:	48 89 43 20          	mov    %rax,0x20(%rbx)
  402457:	c7 43 28 64 64 72 65 	movl   $0x65726464,0x28(%rbx)
  40245e:	66 c7 43 2c 73 73    	movw   $0x7373,0x2c(%rbx)
  402464:	c6 43 2e 00          	movb   $0x0,0x2e(%rbx)
  402468:	89 ef                	mov    %ebp,%edi
  40246a:	e8 c1 e8 ff ff       	callq  400d30 <close@plt>
  40246f:	b8 ff ff ff ff       	mov    $0xffffffff,%eax
  402474:	e9 21 06 00 00       	jmpq   402a9a <submitr+0x746>
  402479:	48 c7 44 24 20 00 00 	movq   $0x0,0x20(%rsp)
  402480:	00 00 
  402482:	48 c7 44 24 28 00 00 	movq   $0x0,0x28(%rsp)
  402489:	00 00 
  40248b:	66 c7 44 24 20 02 00 	movw   $0x2,0x20(%rsp)
  402492:	48 63 50 14          	movslq 0x14(%rax),%rdx
  402496:	48 8b 40 18          	mov    0x18(%rax),%rax
  40249a:	48 8b 30             	mov    (%rax),%rsi
  40249d:	48 8d 7c 24 24       	lea    0x24(%rsp),%rdi
  4024a2:	b9 0c 00 00 00       	mov    $0xc,%ecx
  4024a7:	e8 d4 e8 ff ff       	callq  400d80 <__memmove_chk@plt>
  4024ac:	0f b7 44 24 04       	movzwl 0x4(%rsp),%eax
  4024b1:	66 c1 c8 08          	ror    $0x8,%ax
  4024b5:	66 89 44 24 22       	mov    %ax,0x22(%rsp)
  4024ba:	ba 10 00 00 00       	mov    $0x10,%edx
  4024bf:	48 8d 74 24 20       	lea    0x20(%rsp),%rsi
  4024c4:	89 ef                	mov    %ebp,%edi
  4024c6:	e8 95 e9 ff ff       	callq  400e60 <connect@plt>
  4024cb:	85 c0                	test   %eax,%eax
  4024cd:	79 59                	jns    402528 <submitr+0x1d4>
  4024cf:	48 b8 45 72 72 6f 72 	movabs $0x55203a726f727245,%rax
  4024d6:	3a 20 55 
  4024d9:	48 89 03             	mov    %rax,(%rbx)
  4024dc:	48 b8 6e 61 62 6c 65 	movabs $0x6f7420656c62616e,%rax
  4024e3:	20 74 6f 
  4024e6:	48 89 43 08          	mov    %rax,0x8(%rbx)
  4024ea:	48 b8 20 63 6f 6e 6e 	movabs $0x7463656e6e6f6320,%rax
  4024f1:	65 63 74 
  4024f4:	48 89 43 10          	mov    %rax,0x10(%rbx)
  4024f8:	48 b8 20 74 6f 20 74 	movabs $0x20656874206f7420,%rax
  4024ff:	68 65 20 
  402502:	48 89 43 18          	mov    %rax,0x18(%rbx)
  402506:	c7 43 20 73 65 72 76 	movl   $0x76726573,0x20(%rbx)
  40250d:	66 c7 43 24 65 72    	movw   $0x7265,0x24(%rbx)
  402513:	c6 43 26 00          	movb   $0x0,0x26(%rbx)
  402517:	89 ef                	mov    %ebp,%edi
  402519:	e8 12 e8 ff ff       	callq  400d30 <close@plt>
  40251e:	b8 ff ff ff ff       	mov    $0xffffffff,%eax
  402523:	e9 72 05 00 00       	jmpq   402a9a <submitr+0x746>
  402528:	48 c7 c6 ff ff ff ff 	mov    $0xffffffffffffffff,%rsi
  40252f:	b8 00 00 00 00       	mov    $0x0,%eax
  402534:	48 89 f1             	mov    %rsi,%rcx
  402537:	4c 89 ef             	mov    %r13,%rdi
  40253a:	f2 ae                	repnz scas %es:(%rdi),%al
  40253c:	48 f7 d1             	not    %rcx
  40253f:	48 89 ca             	mov    %rcx,%rdx
  402542:	48 89 f1             	mov    %rsi,%rcx
  402545:	4c 89 ff             	mov    %r15,%rdi
  402548:	f2 ae                	repnz scas %es:(%rdi),%al
  40254a:	48 f7 d1             	not    %rcx
  40254d:	49 89 c8             	mov    %rcx,%r8
  402550:	48 89 f1             	mov    %rsi,%rcx
  402553:	4c 89 f7             	mov    %r14,%rdi
  402556:	f2 ae                	repnz scas %es:(%rdi),%al
  402558:	48 f7 d1             	not    %rcx
  40255b:	4d 8d 44 08 fe       	lea    -0x2(%r8,%rcx,1),%r8
  402560:	48 89 f1             	mov    %rsi,%rcx
  402563:	48 8b 7c 24 08       	mov    0x8(%rsp),%rdi
  402568:	f2 ae                	repnz scas %es:(%rdi),%al
  40256a:	48 89 c8             	mov    %rcx,%rax
  40256d:	48 f7 d0             	not    %rax
  402570:	49 8d 4c 00 ff       	lea    -0x1(%r8,%rax,1),%rcx
  402575:	48 8d 44 52 fd       	lea    -0x3(%rdx,%rdx,2),%rax
  40257a:	48 8d 84 01 80 00 00 	lea    0x80(%rcx,%rax,1),%rax
  402581:	00 
  402582:	48 3d 00 20 00 00    	cmp    $0x2000,%rax
  402588:	76 72                	jbe    4025fc <submitr+0x2a8>
  40258a:	48 b8 45 72 72 6f 72 	movabs $0x52203a726f727245,%rax
  402591:	3a 20 52 
  402594:	48 89 03             	mov    %rax,(%rbx)
  402597:	48 b8 65 73 75 6c 74 	movabs $0x747320746c757365,%rax
  40259e:	20 73 74 
  4025a1:	48 89 43 08          	mov    %rax,0x8(%rbx)
  4025a5:	48 b8 72 69 6e 67 20 	movabs $0x6f6f7420676e6972,%rax
  4025ac:	74 6f 6f 
  4025af:	48 89 43 10          	mov    %rax,0x10(%rbx)
  4025b3:	48 b8 20 6c 61 72 67 	movabs $0x202e656772616c20,%rax
  4025ba:	65 2e 20 
  4025bd:	48 89 43 18          	mov    %rax,0x18(%rbx)
  4025c1:	48 b8 49 6e 63 72 65 	movabs $0x6573616572636e49,%rax
  4025c8:	61 73 65 
  4025cb:	48 89 43 20          	mov    %rax,0x20(%rbx)
  4025cf:	48 b8 20 53 55 42 4d 	movabs $0x5254494d42555320,%rax
  4025d6:	49 54 52 
  4025d9:	48 89 43 28          	mov    %rax,0x28(%rbx)
  4025dd:	48 b8 5f 4d 41 58 42 	movabs $0x46554258414d5f,%rax
  4025e4:	55 46 00 
  4025e7:	48 89 43 30          	mov    %rax,0x30(%rbx)
  4025eb:	89 ef                	mov    %ebp,%edi
  4025ed:	e8 3e e7 ff ff       	callq  400d30 <close@plt>
  4025f2:	b8 ff ff ff ff       	mov    $0xffffffff,%eax
  4025f7:	e9 9e 04 00 00       	jmpq   402a9a <submitr+0x746>
  4025fc:	48 8d b4 24 40 40 00 	lea    0x4040(%rsp),%rsi
  402603:	00 
  402604:	b9 00 04 00 00       	mov    $0x400,%ecx
  402609:	b8 00 00 00 00       	mov    $0x0,%eax
  40260e:	48 89 f7             	mov    %rsi,%rdi
  402611:	f3 48 ab             	rep stos %rax,%es:(%rdi)
  402614:	4c 89 ef             	mov    %r13,%rdi
  402617:	e8 2b fc ff ff       	callq  402247 <urlencode>
  40261c:	85 c0                	test   %eax,%eax
  40261e:	0f 89 8a 00 00 00    	jns    4026ae <submitr+0x35a>
  402624:	48 b8 45 72 72 6f 72 	movabs $0x52203a726f727245,%rax
  40262b:	3a 20 52 
  40262e:	48 89 03             	mov    %rax,(%rbx)
  402631:	48 b8 65 73 75 6c 74 	movabs $0x747320746c757365,%rax
  402638:	20 73 74 
  40263b:	48 89 43 08          	mov    %rax,0x8(%rbx)
  40263f:	48 b8 72 69 6e 67 20 	movabs $0x6e6f6320676e6972,%rax
  402646:	63 6f 6e 
  402649:	48 89 43 10          	mov    %rax,0x10(%rbx)
  40264d:	48 b8 74 61 69 6e 73 	movabs $0x6e6120736e696174,%rax
  402654:	20 61 6e 
  402657:	48 89 43 18          	mov    %rax,0x18(%rbx)
  40265b:	48 b8 20 69 6c 6c 65 	movabs $0x6c6167656c6c6920,%rax
  402662:	67 61 6c 
  402665:	48 89 43 20          	mov    %rax,0x20(%rbx)
  402669:	48 b8 20 6f 72 20 75 	movabs $0x72706e7520726f20,%rax
  402670:	6e 70 72 
  402673:	48 89 43 28          	mov    %rax,0x28(%rbx)
  402677:	48 b8 69 6e 74 61 62 	movabs $0x20656c6261746e69,%rax
  40267e:	6c 65 20 
  402681:	48 89 43 30          	mov    %rax,0x30(%rbx)
  402685:	48 b8 63 68 61 72 61 	movabs $0x6574636172616863,%rax
  40268c:	63 74 65 
  40268f:	48 89 43 38          	mov    %rax,0x38(%rbx)
  402693:	66 c7 43 40 72 2e    	movw   $0x2e72,0x40(%rbx)
  402699:	c6 43 42 00          	movb   $0x0,0x42(%rbx)
  40269d:	89 ef                	mov    %ebp,%edi
  40269f:	e8 8c e6 ff ff       	callq  400d30 <close@plt>
  4026a4:	b8 ff ff ff ff       	mov    $0xffffffff,%eax
  4026a9:	e9 ec 03 00 00       	jmpq   402a9a <submitr+0x746>
  4026ae:	4c 8d ac 24 40 20 00 	lea    0x2040(%rsp),%r13
  4026b5:	00 
  4026b6:	41 54                	push   %r12
  4026b8:	48 8d 84 24 48 40 00 	lea    0x4048(%rsp),%rax
  4026bf:	00 
  4026c0:	50                   	push   %rax
  4026c1:	4d 89 f9             	mov    %r15,%r9
  4026c4:	4d 89 f0             	mov    %r14,%r8
  4026c7:	b9 a8 35 40 00       	mov    $0x4035a8,%ecx
  4026cc:	ba 00 20 00 00       	mov    $0x2000,%edx
  4026d1:	be 01 00 00 00       	mov    $0x1,%esi
  4026d6:	4c 89 ef             	mov    %r13,%rdi
  4026d9:	b8 00 00 00 00       	mov    $0x0,%eax
  4026de:	e8 9d e7 ff ff       	callq  400e80 <__sprintf_chk@plt>
  4026e3:	b8 00 00 00 00       	mov    $0x0,%eax
  4026e8:	48 c7 c1 ff ff ff ff 	mov    $0xffffffffffffffff,%rcx
  4026ef:	4c 89 ef             	mov    %r13,%rdi
  4026f2:	f2 ae                	repnz scas %es:(%rdi),%al
  4026f4:	48 f7 d1             	not    %rcx
  4026f7:	48 8d 51 ff          	lea    -0x1(%rcx),%rdx
  4026fb:	4c 89 ee             	mov    %r13,%rsi
  4026fe:	89 ef                	mov    %ebp,%edi
  402700:	e8 b1 f9 ff ff       	callq  4020b6 <rio_writen>
  402705:	48 83 c4 10          	add    $0x10,%rsp
  402709:	48 85 c0             	test   %rax,%rax
  40270c:	79 6e                	jns    40277c <submitr+0x428>
  40270e:	48 b8 45 72 72 6f 72 	movabs $0x43203a726f727245,%rax
  402715:	3a 20 43 
  402718:	48 89 03             	mov    %rax,(%rbx)
  40271b:	48 b8 6c 69 65 6e 74 	movabs $0x6e7520746e65696c,%rax
  402722:	20 75 6e 
  402725:	48 89 43 08          	mov    %rax,0x8(%rbx)
  402729:	48 b8 61 62 6c 65 20 	movabs $0x206f7420656c6261,%rax
  402730:	74 6f 20 
  402733:	48 89 43 10          	mov    %rax,0x10(%rbx)
  402737:	48 b8 77 72 69 74 65 	movabs $0x6f74206574697277,%rax
  40273e:	20 74 6f 
  402741:	48 89 43 18          	mov    %rax,0x18(%rbx)
  402745:	48 b8 20 74 68 65 20 	movabs $0x7365722065687420,%rax
  40274c:	72 65 73 
  40274f:	48 89 43 20          	mov    %rax,0x20(%rbx)
  402753:	48 b8 75 6c 74 20 73 	movabs $0x7672657320746c75,%rax
  40275a:	65 72 76 
  40275d:	48 89 43 28          	mov    %rax,0x28(%rbx)
  402761:	66 c7 43 30 65 72    	movw   $0x7265,0x30(%rbx)
  402767:	c6 43 32 00          	movb   $0x0,0x32(%rbx)
  40276b:	89 ef                	mov    %ebp,%edi
  40276d:	e8 be e5 ff ff       	callq  400d30 <close@plt>
  402772:	b8 ff ff ff ff       	mov    $0xffffffff,%eax
  402777:	e9 1e 03 00 00       	jmpq   402a9a <submitr+0x746>
  40277c:	89 ee                	mov    %ebp,%esi
  40277e:	48 8d 7c 24 30       	lea    0x30(%rsp),%rdi
  402783:	e8 ee f8 ff ff       	callq  402076 <rio_readinitb>
  402788:	ba 00 20 00 00       	mov    $0x2000,%edx
  40278d:	48 8d b4 24 40 20 00 	lea    0x2040(%rsp),%rsi
  402794:	00 
  402795:	48 8d 7c 24 30       	lea    0x30(%rsp),%rdi
  40279a:	e8 fe f9 ff ff       	callq  40219d <rio_readlineb>
  40279f:	48 85 c0             	test   %rax,%rax
  4027a2:	7f 7d                	jg     402821 <submitr+0x4cd>
  4027a4:	48 b8 45 72 72 6f 72 	movabs $0x43203a726f727245,%rax
  4027ab:	3a 20 43 
  4027ae:	48 89 03             	mov    %rax,(%rbx)
  4027b1:	48 b8 6c 69 65 6e 74 	movabs $0x6e7520746e65696c,%rax
  4027b8:	20 75 6e 
  4027bb:	48 89 43 08          	mov    %rax,0x8(%rbx)
  4027bf:	48 b8 61 62 6c 65 20 	movabs $0x206f7420656c6261,%rax
  4027c6:	74 6f 20 
  4027c9:	48 89 43 10          	mov    %rax,0x10(%rbx)
  4027cd:	48 b8 72 65 61 64 20 	movabs $0x7269662064616572,%rax
  4027d4:	66 69 72 
  4027d7:	48 89 43 18          	mov    %rax,0x18(%rbx)
  4027db:	48 b8 73 74 20 68 65 	movabs $0x6564616568207473,%rax
  4027e2:	61 64 65 
  4027e5:	48 89 43 20          	mov    %rax,0x20(%rbx)
  4027e9:	48 b8 72 20 66 72 6f 	movabs $0x72206d6f72662072,%rax
  4027f0:	6d 20 72 
  4027f3:	48 89 43 28          	mov    %rax,0x28(%rbx)
  4027f7:	48 b8 65 73 75 6c 74 	movabs $0x657320746c757365,%rax
  4027fe:	20 73 65 
  402801:	48 89 43 30          	mov    %rax,0x30(%rbx)
  402805:	c7 43 38 72 76 65 72 	movl   $0x72657672,0x38(%rbx)
  40280c:	c6 43 3c 00          	movb   $0x0,0x3c(%rbx)
  402810:	89 ef                	mov    %ebp,%edi
  402812:	e8 19 e5 ff ff       	callq  400d30 <close@plt>
  402817:	b8 ff ff ff ff       	mov    $0xffffffff,%eax
  40281c:	e9 79 02 00 00       	jmpq   402a9a <submitr+0x746>
  402821:	4c 8d 84 24 40 80 00 	lea    0x8040(%rsp),%r8
  402828:	00 
  402829:	48 8d 4c 24 1c       	lea    0x1c(%rsp),%rcx
  40282e:	48 8d 94 24 40 60 00 	lea    0x6040(%rsp),%rdx
  402835:	00 
  402836:	be 1f 36 40 00       	mov    $0x40361f,%esi
  40283b:	48 8d bc 24 40 20 00 	lea    0x2040(%rsp),%rdi
  402842:	00 
  402843:	b8 00 00 00 00       	mov    $0x0,%eax
  402848:	e8 93 e5 ff ff       	callq  400de0 <__isoc99_sscanf@plt>
  40284d:	e9 95 00 00 00       	jmpq   4028e7 <submitr+0x593>
  402852:	ba 00 20 00 00       	mov    $0x2000,%edx
  402857:	48 8d b4 24 40 20 00 	lea    0x2040(%rsp),%rsi
  40285e:	00 
  40285f:	48 8d 7c 24 30       	lea    0x30(%rsp),%rdi
  402864:	e8 34 f9 ff ff       	callq  40219d <rio_readlineb>
  402869:	48 85 c0             	test   %rax,%rax
  40286c:	7f 79                	jg     4028e7 <submitr+0x593>
  40286e:	48 b8 45 72 72 6f 72 	movabs $0x43203a726f727245,%rax
  402875:	3a 20 43 
  402878:	48 89 03             	mov    %rax,(%rbx)
  40287b:	48 b8 6c 69 65 6e 74 	movabs $0x6e7520746e65696c,%rax
  402882:	20 75 6e 
  402885:	48 89 43 08          	mov    %rax,0x8(%rbx)
  402889:	48 b8 61 62 6c 65 20 	movabs $0x206f7420656c6261,%rax
  402890:	74 6f 20 
  402893:	48 89 43 10          	mov    %rax,0x10(%rbx)
  402897:	48 b8 72 65 61 64 20 	movabs $0x6165682064616572,%rax
  40289e:	68 65 61 
  4028a1:	48 89 43 18          	mov    %rax,0x18(%rbx)
  4028a5:	48 b8 64 65 72 73 20 	movabs $0x6f72662073726564,%rax
  4028ac:	66 72 6f 
  4028af:	48 89 43 20          	mov    %rax,0x20(%rbx)
  4028b3:	48 b8 6d 20 74 68 65 	movabs $0x657220656874206d,%rax
  4028ba:	20 72 65 
  4028bd:	48 89 43 28          	mov    %rax,0x28(%rbx)
  4028c1:	48 b8 73 75 6c 74 20 	movabs $0x72657320746c7573,%rax
  4028c8:	73 65 72 
  4028cb:	48 89 43 30          	mov    %rax,0x30(%rbx)
  4028cf:	c7 43 38 76 65 72 00 	movl   $0x726576,0x38(%rbx)
  4028d6:	89 ef                	mov    %ebp,%edi
  4028d8:	e8 53 e4 ff ff       	callq  400d30 <close@plt>
  4028dd:	b8 ff ff ff ff       	mov    $0xffffffff,%eax
  4028e2:	e9 b3 01 00 00       	jmpq   402a9a <submitr+0x746>
  4028e7:	0f b6 94 24 40 20 00 	movzbl 0x2040(%rsp),%edx
  4028ee:	00 
  4028ef:	b8 0d 00 00 00       	mov    $0xd,%eax
  4028f4:	29 d0                	sub    %edx,%eax
  4028f6:	75 1b                	jne    402913 <submitr+0x5bf>
  4028f8:	0f b6 94 24 41 20 00 	movzbl 0x2041(%rsp),%edx
  4028ff:	00 
  402900:	b8 0a 00 00 00       	mov    $0xa,%eax
  402905:	29 d0                	sub    %edx,%eax
  402907:	75 0a                	jne    402913 <submitr+0x5bf>
  402909:	0f b6 84 24 42 20 00 	movzbl 0x2042(%rsp),%eax
  402910:	00 
  402911:	f7 d8                	neg    %eax
  402913:	85 c0                	test   %eax,%eax
  402915:	0f 85 37 ff ff ff    	jne    402852 <submitr+0x4fe>
  40291b:	ba 00 20 00 00       	mov    $0x2000,%edx
  402920:	48 8d b4 24 40 20 00 	lea    0x2040(%rsp),%rsi
  402927:	00 
  402928:	48 8d 7c 24 30       	lea    0x30(%rsp),%rdi
  40292d:	e8 6b f8 ff ff       	callq  40219d <rio_readlineb>
  402932:	48 85 c0             	test   %rax,%rax
  402935:	0f 8f 83 00 00 00    	jg     4029be <submitr+0x66a>
  40293b:	48 b8 45 72 72 6f 72 	movabs $0x43203a726f727245,%rax
  402942:	3a 20 43 
  402945:	48 89 03             	mov    %rax,(%rbx)
  402948:	48 b8 6c 69 65 6e 74 	movabs $0x6e7520746e65696c,%rax
  40294f:	20 75 6e 
  402952:	48 89 43 08          	mov    %rax,0x8(%rbx)
  402956:	48 b8 61 62 6c 65 20 	movabs $0x206f7420656c6261,%rax
  40295d:	74 6f 20 
  402960:	48 89 43 10          	mov    %rax,0x10(%rbx)
  402964:	48 b8 72 65 61 64 20 	movabs $0x6174732064616572,%rax
  40296b:	73 74 61 
  40296e:	48 89 43 18          	mov    %rax,0x18(%rbx)
  402972:	48 b8 74 75 73 20 6d 	movabs $0x7373656d20737574,%rax
  402979:	65 73 73 
  40297c:	48 89 43 20          	mov    %rax,0x20(%rbx)
  402980:	48 b8 61 67 65 20 66 	movabs $0x6d6f726620656761,%rax
  402987:	72 6f 6d 
  40298a:	48 89 43 28          	mov    %rax,0x28(%rbx)
  40298e:	48 b8 20 72 65 73 75 	movabs $0x20746c7573657220,%rax
  402995:	6c 74 20 
  402998:	48 89 43 30          	mov    %rax,0x30(%rbx)
  40299c:	c7 43 38 73 65 72 76 	movl   $0x76726573,0x38(%rbx)
  4029a3:	66 c7 43 3c 65 72    	movw   $0x7265,0x3c(%rbx)
  4029a9:	c6 43 3e 00          	movb   $0x0,0x3e(%rbx)
  4029ad:	89 ef                	mov    %ebp,%edi
  4029af:	e8 7c e3 ff ff       	callq  400d30 <close@plt>
  4029b4:	b8 ff ff ff ff       	mov    $0xffffffff,%eax
  4029b9:	e9 dc 00 00 00       	jmpq   402a9a <submitr+0x746>
  4029be:	44 8b 44 24 1c       	mov    0x1c(%rsp),%r8d
  4029c3:	41 81 f8 c8 00 00 00 	cmp    $0xc8,%r8d
  4029ca:	74 37                	je     402a03 <submitr+0x6af>
  4029cc:	4c 8d 8c 24 40 80 00 	lea    0x8040(%rsp),%r9
  4029d3:	00 
  4029d4:	b9 e8 35 40 00       	mov    $0x4035e8,%ecx
  4029d9:	48 c7 c2 ff ff ff ff 	mov    $0xffffffffffffffff,%rdx
  4029e0:	be 01 00 00 00       	mov    $0x1,%esi
  4029e5:	48 89 df             	mov    %rbx,%rdi
  4029e8:	b8 00 00 00 00       	mov    $0x0,%eax
  4029ed:	e8 8e e4 ff ff       	callq  400e80 <__sprintf_chk@plt>
  4029f2:	89 ef                	mov    %ebp,%edi
  4029f4:	e8 37 e3 ff ff       	callq  400d30 <close@plt>
  4029f9:	b8 ff ff ff ff       	mov    $0xffffffff,%eax
  4029fe:	e9 97 00 00 00       	jmpq   402a9a <submitr+0x746>
  402a03:	48 8d b4 24 40 20 00 	lea    0x2040(%rsp),%rsi
  402a0a:	00 
  402a0b:	48 89 df             	mov    %rbx,%rdi
  402a0e:	e8 ad e2 ff ff       	callq  400cc0 <strcpy@plt>
  402a13:	89 ef                	mov    %ebp,%edi
  402a15:	e8 16 e3 ff ff       	callq  400d30 <close@plt>
  402a1a:	0f b6 03             	movzbl (%rbx),%eax
  402a1d:	ba 4f 00 00 00       	mov    $0x4f,%edx
  402a22:	29 c2                	sub    %eax,%edx
  402a24:	75 22                	jne    402a48 <submitr+0x6f4>
  402a26:	0f b6 4b 01          	movzbl 0x1(%rbx),%ecx
  402a2a:	b8 4b 00 00 00       	mov    $0x4b,%eax
  402a2f:	29 c8                	sub    %ecx,%eax
  402a31:	75 17                	jne    402a4a <submitr+0x6f6>
  402a33:	0f b6 4b 02          	movzbl 0x2(%rbx),%ecx
  402a37:	b8 0a 00 00 00       	mov    $0xa,%eax
  402a3c:	29 c8                	sub    %ecx,%eax
  402a3e:	75 0a                	jne    402a4a <submitr+0x6f6>
  402a40:	0f b6 43 03          	movzbl 0x3(%rbx),%eax
  402a44:	f7 d8                	neg    %eax
  402a46:	eb 02                	jmp    402a4a <submitr+0x6f6>
  402a48:	89 d0                	mov    %edx,%eax
  402a4a:	85 c0                	test   %eax,%eax
  402a4c:	74 40                	je     402a8e <submitr+0x73a>
  402a4e:	bf 30 36 40 00       	mov    $0x403630,%edi
  402a53:	b9 05 00 00 00       	mov    $0x5,%ecx
  402a58:	48 89 de             	mov    %rbx,%rsi
  402a5b:	f3 a6                	repz cmpsb %es:(%rdi),%ds:(%rsi)
  402a5d:	0f 97 c0             	seta   %al
  402a60:	0f 92 c1             	setb   %cl
  402a63:	29 c8                	sub    %ecx,%eax
  402a65:	0f be c0             	movsbl %al,%eax
  402a68:	85 c0                	test   %eax,%eax
  402a6a:	74 2e                	je     402a9a <submitr+0x746>
  402a6c:	85 d2                	test   %edx,%edx
  402a6e:	75 13                	jne    402a83 <submitr+0x72f>
  402a70:	0f b6 43 01          	movzbl 0x1(%rbx),%eax
  402a74:	ba 4b 00 00 00       	mov    $0x4b,%edx
  402a79:	29 c2                	sub    %eax,%edx
  402a7b:	75 06                	jne    402a83 <submitr+0x72f>
  402a7d:	0f b6 53 02          	movzbl 0x2(%rbx),%edx
  402a81:	f7 da                	neg    %edx
  402a83:	85 d2                	test   %edx,%edx
  402a85:	75 0e                	jne    402a95 <submitr+0x741>
  402a87:	b8 00 00 00 00       	mov    $0x0,%eax
  402a8c:	eb 0c                	jmp    402a9a <submitr+0x746>
  402a8e:	b8 00 00 00 00       	mov    $0x0,%eax
  402a93:	eb 05                	jmp    402a9a <submitr+0x746>
  402a95:	b8 ff ff ff ff       	mov    $0xffffffff,%eax
  402a9a:	48 8b 9c 24 48 a0 00 	mov    0xa048(%rsp),%rbx
  402aa1:	00 
  402aa2:	64 48 33 1c 25 28 00 	xor    %fs:0x28,%rbx
  402aa9:	00 00 
  402aab:	74 05                	je     402ab2 <submitr+0x75e>
  402aad:	e8 3e e2 ff ff       	callq  400cf0 <__stack_chk_fail@plt>
  402ab2:	48 81 c4 58 a0 00 00 	add    $0xa058,%rsp
  402ab9:	5b                   	pop    %rbx
  402aba:	5d                   	pop    %rbp
  402abb:	41 5c                	pop    %r12
  402abd:	41 5d                	pop    %r13
  402abf:	41 5e                	pop    %r14
  402ac1:	41 5f                	pop    %r15
  402ac3:	c3                   	retq   

0000000000402ac4 <init_timeout>:
  402ac4:	85 ff                	test   %edi,%edi
  402ac6:	74 23                	je     402aeb <init_timeout+0x27>
  402ac8:	53                   	push   %rbx
  402ac9:	89 fb                	mov    %edi,%ebx
  402acb:	85 ff                	test   %edi,%edi
  402acd:	79 05                	jns    402ad4 <init_timeout+0x10>
  402acf:	bb 00 00 00 00       	mov    $0x0,%ebx
  402ad4:	be 88 20 40 00       	mov    $0x402088,%esi
  402ad9:	bf 0e 00 00 00       	mov    $0xe,%edi
  402ade:	e8 7d e2 ff ff       	callq  400d60 <signal@plt>
  402ae3:	89 df                	mov    %ebx,%edi
  402ae5:	e8 36 e2 ff ff       	callq  400d20 <alarm@plt>
  402aea:	5b                   	pop    %rbx
  402aeb:	f3 c3                	repz retq 

0000000000402aed <init_driver>:
  402aed:	55                   	push   %rbp
  402aee:	53                   	push   %rbx
  402aef:	48 83 ec 28          	sub    $0x28,%rsp
  402af3:	48 89 fd             	mov    %rdi,%rbp
  402af6:	64 48 8b 04 25 28 00 	mov    %fs:0x28,%rax
  402afd:	00 00 
  402aff:	48 89 44 24 18       	mov    %rax,0x18(%rsp)
  402b04:	31 c0                	xor    %eax,%eax
  402b06:	be 01 00 00 00       	mov    $0x1,%esi
  402b0b:	bf 0d 00 00 00       	mov    $0xd,%edi
  402b10:	e8 4b e2 ff ff       	callq  400d60 <signal@plt>
  402b15:	be 01 00 00 00       	mov    $0x1,%esi
  402b1a:	bf 1d 00 00 00       	mov    $0x1d,%edi
  402b1f:	e8 3c e2 ff ff       	callq  400d60 <signal@plt>
  402b24:	be 01 00 00 00       	mov    $0x1,%esi
  402b29:	bf 1d 00 00 00       	mov    $0x1d,%edi
  402b2e:	e8 2d e2 ff ff       	callq  400d60 <signal@plt>
  402b33:	ba 00 00 00 00       	mov    $0x0,%edx
  402b38:	be 01 00 00 00       	mov    $0x1,%esi
  402b3d:	bf 02 00 00 00       	mov    $0x2,%edi
  402b42:	e8 49 e3 ff ff       	callq  400e90 <socket@plt>
  402b47:	85 c0                	test   %eax,%eax
  402b49:	79 4f                	jns    402b9a <init_driver+0xad>
  402b4b:	48 b8 45 72 72 6f 72 	movabs $0x43203a726f727245,%rax
  402b52:	3a 20 43 
  402b55:	48 89 45 00          	mov    %rax,0x0(%rbp)
  402b59:	48 b8 6c 69 65 6e 74 	movabs $0x6e7520746e65696c,%rax
  402b60:	20 75 6e 
  402b63:	48 89 45 08          	mov    %rax,0x8(%rbp)
  402b67:	48 b8 61 62 6c 65 20 	movabs $0x206f7420656c6261,%rax
  402b6e:	74 6f 20 
  402b71:	48 89 45 10          	mov    %rax,0x10(%rbp)
  402b75:	48 b8 63 72 65 61 74 	movabs $0x7320657461657263,%rax
  402b7c:	65 20 73 
  402b7f:	48 89 45 18          	mov    %rax,0x18(%rbp)
  402b83:	c7 45 20 6f 63 6b 65 	movl   $0x656b636f,0x20(%rbp)
  402b8a:	66 c7 45 24 74 00    	movw   $0x74,0x24(%rbp)
  402b90:	b8 ff ff ff ff       	mov    $0xffffffff,%eax
  402b95:	e9 2a 01 00 00       	jmpq   402cc4 <init_driver+0x1d7>
  402b9a:	89 c3                	mov    %eax,%ebx
  402b9c:	bf 35 36 40 00       	mov    $0x403635,%edi
  402ba1:	e8 ca e1 ff ff       	callq  400d70 <gethostbyname@plt>
  402ba6:	48 85 c0             	test   %rax,%rax
  402ba9:	75 68                	jne    402c13 <init_driver+0x126>
  402bab:	48 b8 45 72 72 6f 72 	movabs $0x44203a726f727245,%rax
  402bb2:	3a 20 44 
  402bb5:	48 89 45 00          	mov    %rax,0x0(%rbp)
  402bb9:	48 b8 4e 53 20 69 73 	movabs $0x6e7520736920534e,%rax
  402bc0:	20 75 6e 
  402bc3:	48 89 45 08          	mov    %rax,0x8(%rbp)
  402bc7:	48 b8 61 62 6c 65 20 	movabs $0x206f7420656c6261,%rax
  402bce:	74 6f 20 
  402bd1:	48 89 45 10          	mov    %rax,0x10(%rbp)
  402bd5:	48 b8 72 65 73 6f 6c 	movabs $0x2065766c6f736572,%rax
  402bdc:	76 65 20 
  402bdf:	48 89 45 18          	mov    %rax,0x18(%rbp)
  402be3:	48 b8 73 65 72 76 65 	movabs $0x6120726576726573,%rax
  402bea:	72 20 61 
  402bed:	48 89 45 20          	mov    %rax,0x20(%rbp)
  402bf1:	c7 45 28 64 64 72 65 	movl   $0x65726464,0x28(%rbp)
  402bf8:	66 c7 45 2c 73 73    	movw   $0x7373,0x2c(%rbp)
  402bfe:	c6 45 2e 00          	movb   $0x0,0x2e(%rbp)
  402c02:	89 df                	mov    %ebx,%edi
  402c04:	e8 27 e1 ff ff       	callq  400d30 <close@plt>
  402c09:	b8 ff ff ff ff       	mov    $0xffffffff,%eax
  402c0e:	e9 b1 00 00 00       	jmpq   402cc4 <init_driver+0x1d7>
  402c13:	48 c7 04 24 00 00 00 	movq   $0x0,(%rsp)
  402c1a:	00 
  402c1b:	48 c7 44 24 08 00 00 	movq   $0x0,0x8(%rsp)
  402c22:	00 00 
  402c24:	66 c7 04 24 02 00    	movw   $0x2,(%rsp)
  402c2a:	48 63 50 14          	movslq 0x14(%rax),%rdx
  402c2e:	48 8b 40 18          	mov    0x18(%rax),%rax
  402c32:	48 8b 30             	mov    (%rax),%rsi
  402c35:	48 8d 7c 24 04       	lea    0x4(%rsp),%rdi
  402c3a:	b9 0c 00 00 00       	mov    $0xc,%ecx
  402c3f:	e8 3c e1 ff ff       	callq  400d80 <__memmove_chk@plt>
  402c44:	66 c7 44 24 02 3c 9a 	movw   $0x9a3c,0x2(%rsp)
  402c4b:	ba 10 00 00 00       	mov    $0x10,%edx
  402c50:	48 89 e6             	mov    %rsp,%rsi
  402c53:	89 df                	mov    %ebx,%edi
  402c55:	e8 06 e2 ff ff       	callq  400e60 <connect@plt>
  402c5a:	85 c0                	test   %eax,%eax
  402c5c:	79 50                	jns    402cae <init_driver+0x1c1>
  402c5e:	48 b8 45 72 72 6f 72 	movabs $0x55203a726f727245,%rax
  402c65:	3a 20 55 
  402c68:	48 89 45 00          	mov    %rax,0x0(%rbp)
  402c6c:	48 b8 6e 61 62 6c 65 	movabs $0x6f7420656c62616e,%rax
  402c73:	20 74 6f 
  402c76:	48 89 45 08          	mov    %rax,0x8(%rbp)
  402c7a:	48 b8 20 63 6f 6e 6e 	movabs $0x7463656e6e6f6320,%rax
  402c81:	65 63 74 
  402c84:	48 89 45 10          	mov    %rax,0x10(%rbp)
  402c88:	48 b8 20 74 6f 20 73 	movabs $0x76726573206f7420,%rax
  402c8f:	65 72 76 
  402c92:	48 89 45 18          	mov    %rax,0x18(%rbp)
  402c96:	66 c7 45 20 65 72    	movw   $0x7265,0x20(%rbp)
  402c9c:	c6 45 22 00          	movb   $0x0,0x22(%rbp)
  402ca0:	89 df                	mov    %ebx,%edi
  402ca2:	e8 89 e0 ff ff       	callq  400d30 <close@plt>
  402ca7:	b8 ff ff ff ff       	mov    $0xffffffff,%eax
  402cac:	eb 16                	jmp    402cc4 <init_driver+0x1d7>
  402cae:	89 df                	mov    %ebx,%edi
  402cb0:	e8 7b e0 ff ff       	callq  400d30 <close@plt>
  402cb5:	66 c7 45 00 4f 4b    	movw   $0x4b4f,0x0(%rbp)
  402cbb:	c6 45 02 00          	movb   $0x0,0x2(%rbp)
  402cbf:	b8 00 00 00 00       	mov    $0x0,%eax
  402cc4:	48 8b 4c 24 18       	mov    0x18(%rsp),%rcx
  402cc9:	64 48 33 0c 25 28 00 	xor    %fs:0x28,%rcx
  402cd0:	00 00 
  402cd2:	74 05                	je     402cd9 <init_driver+0x1ec>
  402cd4:	e8 17 e0 ff ff       	callq  400cf0 <__stack_chk_fail@plt>
  402cd9:	48 83 c4 28          	add    $0x28,%rsp
  402cdd:	5b                   	pop    %rbx
  402cde:	5d                   	pop    %rbp
  402cdf:	c3                   	retq   

0000000000402ce0 <driver_post>:
  402ce0:	53                   	push   %rbx
  402ce1:	4c 89 cb             	mov    %r9,%rbx
  402ce4:	45 85 c0             	test   %r8d,%r8d
  402ce7:	74 27                	je     402d10 <driver_post+0x30>
  402ce9:	48 89 ca             	mov    %rcx,%rdx
  402cec:	be 45 36 40 00       	mov    $0x403645,%esi
  402cf1:	bf 01 00 00 00       	mov    $0x1,%edi
  402cf6:	b8 00 00 00 00       	mov    $0x0,%eax
  402cfb:	e8 00 e1 ff ff       	callq  400e00 <__printf_chk@plt>
  402d00:	66 c7 03 4f 4b       	movw   $0x4b4f,(%rbx)
  402d05:	c6 43 02 00          	movb   $0x0,0x2(%rbx)
  402d09:	b8 00 00 00 00       	mov    $0x0,%eax
  402d0e:	eb 3f                	jmp    402d4f <driver_post+0x6f>
  402d10:	48 85 ff             	test   %rdi,%rdi
  402d13:	74 2c                	je     402d41 <driver_post+0x61>
  402d15:	80 3f 00             	cmpb   $0x0,(%rdi)
  402d18:	74 27                	je     402d41 <driver_post+0x61>
  402d1a:	48 83 ec 08          	sub    $0x8,%rsp
  402d1e:	41 51                	push   %r9
  402d20:	49 89 c9             	mov    %rcx,%r9
  402d23:	49 89 d0             	mov    %rdx,%r8
  402d26:	48 89 f9             	mov    %rdi,%rcx
  402d29:	48 89 f2             	mov    %rsi,%rdx
  402d2c:	be 9a 3c 00 00       	mov    $0x3c9a,%esi
  402d31:	bf 35 36 40 00       	mov    $0x403635,%edi
  402d36:	e8 19 f6 ff ff       	callq  402354 <submitr>
  402d3b:	48 83 c4 10          	add    $0x10,%rsp
  402d3f:	eb 0e                	jmp    402d4f <driver_post+0x6f>
  402d41:	66 c7 03 4f 4b       	movw   $0x4b4f,(%rbx)
  402d46:	c6 43 02 00          	movb   $0x0,0x2(%rbx)
  402d4a:	b8 00 00 00 00       	mov    $0x0,%eax
  402d4f:	5b                   	pop    %rbx
  402d50:	c3                   	retq   

0000000000402d51 <check>:
  402d51:	89 f8                	mov    %edi,%eax
  402d53:	c1 e8 1c             	shr    $0x1c,%eax
  402d56:	85 c0                	test   %eax,%eax
  402d58:	74 1d                	je     402d77 <check+0x26>
  402d5a:	b9 00 00 00 00       	mov    $0x0,%ecx
  402d5f:	eb 0b                	jmp    402d6c <check+0x1b>
  402d61:	89 f8                	mov    %edi,%eax
  402d63:	d3 e8                	shr    %cl,%eax
  402d65:	3c 0a                	cmp    $0xa,%al
  402d67:	74 14                	je     402d7d <check+0x2c>
  402d69:	83 c1 08             	add    $0x8,%ecx
  402d6c:	83 f9 1f             	cmp    $0x1f,%ecx
  402d6f:	7e f0                	jle    402d61 <check+0x10>
  402d71:	b8 01 00 00 00       	mov    $0x1,%eax
  402d76:	c3                   	retq   
  402d77:	b8 00 00 00 00       	mov    $0x0,%eax
  402d7c:	c3                   	retq   
  402d7d:	b8 00 00 00 00       	mov    $0x0,%eax
  402d82:	c3                   	retq   

0000000000402d83 <gencookie>:
  402d83:	53                   	push   %rbx
  402d84:	83 c7 01             	add    $0x1,%edi
  402d87:	e8 14 df ff ff       	callq  400ca0 <srandom@plt>
  402d8c:	e8 2f e0 ff ff       	callq  400dc0 <random@plt>
  402d91:	89 c3                	mov    %eax,%ebx
  402d93:	89 c7                	mov    %eax,%edi
  402d95:	e8 b7 ff ff ff       	callq  402d51 <check>
  402d9a:	85 c0                	test   %eax,%eax
  402d9c:	74 ee                	je     402d8c <gencookie+0x9>
  402d9e:	89 d8                	mov    %ebx,%eax
  402da0:	5b                   	pop    %rbx
  402da1:	c3                   	retq   
  402da2:	66 2e 0f 1f 84 00 00 	nopw   %cs:0x0(%rax,%rax,1)
  402da9:	00 00 00 
  402dac:	0f 1f 40 00          	nopl   0x0(%rax)

0000000000402db0 <__libc_csu_init>:
  402db0:	41 57                	push   %r15
  402db2:	41 56                	push   %r14
  402db4:	41 89 ff             	mov    %edi,%r15d
  402db7:	41 55                	push   %r13
  402db9:	41 54                	push   %r12
  402dbb:	4c 8d 25 4e 10 20 00 	lea    0x20104e(%rip),%r12        # 603e10 <__frame_dummy_init_array_entry>
  402dc2:	55                   	push   %rbp
  402dc3:	48 8d 2d 4e 10 20 00 	lea    0x20104e(%rip),%rbp        # 603e18 <__init_array_end>
  402dca:	53                   	push   %rbx
  402dcb:	49 89 f6             	mov    %rsi,%r14
  402dce:	49 89 d5             	mov    %rdx,%r13
  402dd1:	4c 29 e5             	sub    %r12,%rbp
  402dd4:	48 83 ec 08          	sub    $0x8,%rsp
  402dd8:	48 c1 fd 03          	sar    $0x3,%rbp
  402ddc:	e8 67 de ff ff       	callq  400c48 <_init>
  402de1:	48 85 ed             	test   %rbp,%rbp
  402de4:	74 20                	je     402e06 <__libc_csu_init+0x56>
  402de6:	31 db                	xor    %ebx,%ebx
  402de8:	0f 1f 84 00 00 00 00 	nopl   0x0(%rax,%rax,1)
  402def:	00 
  402df0:	4c 89 ea             	mov    %r13,%rdx
  402df3:	4c 89 f6             	mov    %r14,%rsi
  402df6:	44 89 ff             	mov    %r15d,%edi
  402df9:	41 ff 14 dc          	callq  *(%r12,%rbx,8)
  402dfd:	48 83 c3 01          	add    $0x1,%rbx
  402e01:	48 39 eb             	cmp    %rbp,%rbx
  402e04:	75 ea                	jne    402df0 <__libc_csu_init+0x40>
  402e06:	48 83 c4 08          	add    $0x8,%rsp
  402e0a:	5b                   	pop    %rbx
  402e0b:	5d                   	pop    %rbp
  402e0c:	41 5c                	pop    %r12
  402e0e:	41 5d                	pop    %r13
  402e10:	41 5e                	pop    %r14
  402e12:	41 5f                	pop    %r15
  402e14:	c3                   	retq   
  402e15:	90                   	nop
  402e16:	66 2e 0f 1f 84 00 00 	nopw   %cs:0x0(%rax,%rax,1)
  402e1d:	00 00 00 

0000000000402e20 <__libc_csu_fini>:
  402e20:	f3 c3                	repz retq 

Disassembly of section .fini:

0000000000402e24 <_fini>:
  402e24:	48 83 ec 08          	sub    $0x8,%rsp
  402e28:	48 83 c4 08          	add    $0x8,%rsp
  402e2c:	c3                   	retq   
