
rtarget:     file format elf64-x86-64


Disassembly of section .init:

0000000000400c48 <_init>:
  400c48:	48 83 ec 08          	sub    $0x8,%rsp
  400c4c:	48 8b 05 a5 43 20 00 	mov    0x2043a5(%rip),%rax        # 604ff8 <__gmon_start__>
  400c53:	48 85 c0             	test   %rax,%rax
  400c56:	74 05                	je     400c5d <_init+0x15>
  400c58:	e8 43 02 00 00       	callq  400ea0 <__gmon_start__@plt>
  400c5d:	48 83 c4 08          	add    $0x8,%rsp
  400c61:	c3                   	retq   

Disassembly of section .plt:

0000000000400c70 <.plt>:
  400c70:	ff 35 92 43 20 00    	pushq  0x204392(%rip)        # 605008 <_GLOBAL_OFFSET_TABLE_+0x8>
  400c76:	ff 25 94 43 20 00    	jmpq   *0x204394(%rip)        # 605010 <_GLOBAL_OFFSET_TABLE_+0x10>
  400c7c:	0f 1f 40 00          	nopl   0x0(%rax)

0000000000400c80 <strcasecmp@plt>:
  400c80:	ff 25 92 43 20 00    	jmpq   *0x204392(%rip)        # 605018 <strcasecmp@GLIBC_2.2.5>
  400c86:	68 00 00 00 00       	pushq  $0x0
  400c8b:	e9 e0 ff ff ff       	jmpq   400c70 <.plt>

0000000000400c90 <__errno_location@plt>:
  400c90:	ff 25 8a 43 20 00    	jmpq   *0x20438a(%rip)        # 605020 <__errno_location@GLIBC_2.2.5>
  400c96:	68 01 00 00 00       	pushq  $0x1
  400c9b:	e9 d0 ff ff ff       	jmpq   400c70 <.plt>

0000000000400ca0 <srandom@plt>:
  400ca0:	ff 25 82 43 20 00    	jmpq   *0x204382(%rip)        # 605028 <srandom@GLIBC_2.2.5>
  400ca6:	68 02 00 00 00       	pushq  $0x2
  400cab:	e9 c0 ff ff ff       	jmpq   400c70 <.plt>

0000000000400cb0 <strncmp@plt>:
  400cb0:	ff 25 7a 43 20 00    	jmpq   *0x20437a(%rip)        # 605030 <strncmp@GLIBC_2.2.5>
  400cb6:	68 03 00 00 00       	pushq  $0x3
  400cbb:	e9 b0 ff ff ff       	jmpq   400c70 <.plt>

0000000000400cc0 <strcpy@plt>:
  400cc0:	ff 25 72 43 20 00    	jmpq   *0x204372(%rip)        # 605038 <strcpy@GLIBC_2.2.5>
  400cc6:	68 04 00 00 00       	pushq  $0x4
  400ccb:	e9 a0 ff ff ff       	jmpq   400c70 <.plt>

0000000000400cd0 <puts@plt>:
  400cd0:	ff 25 6a 43 20 00    	jmpq   *0x20436a(%rip)        # 605040 <puts@GLIBC_2.2.5>
  400cd6:	68 05 00 00 00       	pushq  $0x5
  400cdb:	e9 90 ff ff ff       	jmpq   400c70 <.plt>

0000000000400ce0 <write@plt>:
  400ce0:	ff 25 62 43 20 00    	jmpq   *0x204362(%rip)        # 605048 <write@GLIBC_2.2.5>
  400ce6:	68 06 00 00 00       	pushq  $0x6
  400ceb:	e9 80 ff ff ff       	jmpq   400c70 <.plt>

0000000000400cf0 <__stack_chk_fail@plt>:
  400cf0:	ff 25 5a 43 20 00    	jmpq   *0x20435a(%rip)        # 605050 <__stack_chk_fail@GLIBC_2.4>
  400cf6:	68 07 00 00 00       	pushq  $0x7
  400cfb:	e9 70 ff ff ff       	jmpq   400c70 <.plt>

0000000000400d00 <mmap@plt>:
  400d00:	ff 25 52 43 20 00    	jmpq   *0x204352(%rip)        # 605058 <mmap@GLIBC_2.2.5>
  400d06:	68 08 00 00 00       	pushq  $0x8
  400d0b:	e9 60 ff ff ff       	jmpq   400c70 <.plt>

0000000000400d10 <memset@plt>:
  400d10:	ff 25 4a 43 20 00    	jmpq   *0x20434a(%rip)        # 605060 <memset@GLIBC_2.2.5>
  400d16:	68 09 00 00 00       	pushq  $0x9
  400d1b:	e9 50 ff ff ff       	jmpq   400c70 <.plt>

0000000000400d20 <alarm@plt>:
  400d20:	ff 25 42 43 20 00    	jmpq   *0x204342(%rip)        # 605068 <alarm@GLIBC_2.2.5>
  400d26:	68 0a 00 00 00       	pushq  $0xa
  400d2b:	e9 40 ff ff ff       	jmpq   400c70 <.plt>

0000000000400d30 <close@plt>:
  400d30:	ff 25 3a 43 20 00    	jmpq   *0x20433a(%rip)        # 605070 <close@GLIBC_2.2.5>
  400d36:	68 0b 00 00 00       	pushq  $0xb
  400d3b:	e9 30 ff ff ff       	jmpq   400c70 <.plt>

0000000000400d40 <read@plt>:
  400d40:	ff 25 32 43 20 00    	jmpq   *0x204332(%rip)        # 605078 <read@GLIBC_2.2.5>
  400d46:	68 0c 00 00 00       	pushq  $0xc
  400d4b:	e9 20 ff ff ff       	jmpq   400c70 <.plt>

0000000000400d50 <__libc_start_main@plt>:
  400d50:	ff 25 2a 43 20 00    	jmpq   *0x20432a(%rip)        # 605080 <__libc_start_main@GLIBC_2.2.5>
  400d56:	68 0d 00 00 00       	pushq  $0xd
  400d5b:	e9 10 ff ff ff       	jmpq   400c70 <.plt>

0000000000400d60 <signal@plt>:
  400d60:	ff 25 22 43 20 00    	jmpq   *0x204322(%rip)        # 605088 <signal@GLIBC_2.2.5>
  400d66:	68 0e 00 00 00       	pushq  $0xe
  400d6b:	e9 00 ff ff ff       	jmpq   400c70 <.plt>

0000000000400d70 <gethostbyname@plt>:
  400d70:	ff 25 1a 43 20 00    	jmpq   *0x20431a(%rip)        # 605090 <gethostbyname@GLIBC_2.2.5>
  400d76:	68 0f 00 00 00       	pushq  $0xf
  400d7b:	e9 f0 fe ff ff       	jmpq   400c70 <.plt>

0000000000400d80 <__memmove_chk@plt>:
  400d80:	ff 25 12 43 20 00    	jmpq   *0x204312(%rip)        # 605098 <__memmove_chk@GLIBC_2.3.4>
  400d86:	68 10 00 00 00       	pushq  $0x10
  400d8b:	e9 e0 fe ff ff       	jmpq   400c70 <.plt>

0000000000400d90 <strtol@plt>:
  400d90:	ff 25 0a 43 20 00    	jmpq   *0x20430a(%rip)        # 6050a0 <strtol@GLIBC_2.2.5>
  400d96:	68 11 00 00 00       	pushq  $0x11
  400d9b:	e9 d0 fe ff ff       	jmpq   400c70 <.plt>

0000000000400da0 <memcpy@plt>:
  400da0:	ff 25 02 43 20 00    	jmpq   *0x204302(%rip)        # 6050a8 <memcpy@GLIBC_2.14>
  400da6:	68 12 00 00 00       	pushq  $0x12
  400dab:	e9 c0 fe ff ff       	jmpq   400c70 <.plt>

0000000000400db0 <time@plt>:
  400db0:	ff 25 fa 42 20 00    	jmpq   *0x2042fa(%rip)        # 6050b0 <time@GLIBC_2.2.5>
  400db6:	68 13 00 00 00       	pushq  $0x13
  400dbb:	e9 b0 fe ff ff       	jmpq   400c70 <.plt>

0000000000400dc0 <random@plt>:
  400dc0:	ff 25 f2 42 20 00    	jmpq   *0x2042f2(%rip)        # 6050b8 <random@GLIBC_2.2.5>
  400dc6:	68 14 00 00 00       	pushq  $0x14
  400dcb:	e9 a0 fe ff ff       	jmpq   400c70 <.plt>

0000000000400dd0 <_IO_getc@plt>:
  400dd0:	ff 25 ea 42 20 00    	jmpq   *0x2042ea(%rip)        # 6050c0 <_IO_getc@GLIBC_2.2.5>
  400dd6:	68 15 00 00 00       	pushq  $0x15
  400ddb:	e9 90 fe ff ff       	jmpq   400c70 <.plt>

0000000000400de0 <__isoc99_sscanf@plt>:
  400de0:	ff 25 e2 42 20 00    	jmpq   *0x2042e2(%rip)        # 6050c8 <__isoc99_sscanf@GLIBC_2.7>
  400de6:	68 16 00 00 00       	pushq  $0x16
  400deb:	e9 80 fe ff ff       	jmpq   400c70 <.plt>

0000000000400df0 <munmap@plt>:
  400df0:	ff 25 da 42 20 00    	jmpq   *0x2042da(%rip)        # 6050d0 <munmap@GLIBC_2.2.5>
  400df6:	68 17 00 00 00       	pushq  $0x17
  400dfb:	e9 70 fe ff ff       	jmpq   400c70 <.plt>

0000000000400e00 <__printf_chk@plt>:
  400e00:	ff 25 d2 42 20 00    	jmpq   *0x2042d2(%rip)        # 6050d8 <__printf_chk@GLIBC_2.3.4>
  400e06:	68 18 00 00 00       	pushq  $0x18
  400e0b:	e9 60 fe ff ff       	jmpq   400c70 <.plt>

0000000000400e10 <fopen@plt>:
  400e10:	ff 25 ca 42 20 00    	jmpq   *0x2042ca(%rip)        # 6050e0 <fopen@GLIBC_2.2.5>
  400e16:	68 19 00 00 00       	pushq  $0x19
  400e1b:	e9 50 fe ff ff       	jmpq   400c70 <.plt>

0000000000400e20 <getopt@plt>:
  400e20:	ff 25 c2 42 20 00    	jmpq   *0x2042c2(%rip)        # 6050e8 <getopt@GLIBC_2.2.5>
  400e26:	68 1a 00 00 00       	pushq  $0x1a
  400e2b:	e9 40 fe ff ff       	jmpq   400c70 <.plt>

0000000000400e30 <strtoul@plt>:
  400e30:	ff 25 ba 42 20 00    	jmpq   *0x2042ba(%rip)        # 6050f0 <strtoul@GLIBC_2.2.5>
  400e36:	68 1b 00 00 00       	pushq  $0x1b
  400e3b:	e9 30 fe ff ff       	jmpq   400c70 <.plt>

0000000000400e40 <gethostname@plt>:
  400e40:	ff 25 b2 42 20 00    	jmpq   *0x2042b2(%rip)        # 6050f8 <gethostname@GLIBC_2.2.5>
  400e46:	68 1c 00 00 00       	pushq  $0x1c
  400e4b:	e9 20 fe ff ff       	jmpq   400c70 <.plt>

0000000000400e50 <exit@plt>:
  400e50:	ff 25 aa 42 20 00    	jmpq   *0x2042aa(%rip)        # 605100 <exit@GLIBC_2.2.5>
  400e56:	68 1d 00 00 00       	pushq  $0x1d
  400e5b:	e9 10 fe ff ff       	jmpq   400c70 <.plt>

0000000000400e60 <connect@plt>:
  400e60:	ff 25 a2 42 20 00    	jmpq   *0x2042a2(%rip)        # 605108 <connect@GLIBC_2.2.5>
  400e66:	68 1e 00 00 00       	pushq  $0x1e
  400e6b:	e9 00 fe ff ff       	jmpq   400c70 <.plt>

0000000000400e70 <__fprintf_chk@plt>:
  400e70:	ff 25 9a 42 20 00    	jmpq   *0x20429a(%rip)        # 605110 <__fprintf_chk@GLIBC_2.3.4>
  400e76:	68 1f 00 00 00       	pushq  $0x1f
  400e7b:	e9 f0 fd ff ff       	jmpq   400c70 <.plt>

0000000000400e80 <__sprintf_chk@plt>:
  400e80:	ff 25 92 42 20 00    	jmpq   *0x204292(%rip)        # 605118 <__sprintf_chk@GLIBC_2.3.4>
  400e86:	68 20 00 00 00       	pushq  $0x20
  400e8b:	e9 e0 fd ff ff       	jmpq   400c70 <.plt>

0000000000400e90 <socket@plt>:
  400e90:	ff 25 8a 42 20 00    	jmpq   *0x20428a(%rip)        # 605120 <socket@GLIBC_2.2.5>
  400e96:	68 21 00 00 00       	pushq  $0x21
  400e9b:	e9 d0 fd ff ff       	jmpq   400c70 <.plt>

Disassembly of section .plt.got:

0000000000400ea0 <__gmon_start__@plt>:
  400ea0:	ff 25 52 41 20 00    	jmpq   *0x204152(%rip)        # 604ff8 <__gmon_start__>
  400ea6:	66 90                	xchg   %ax,%ax

Disassembly of section .text:

0000000000400eb0 <_start>:
  400eb0:	31 ed                	xor    %ebp,%ebp
  400eb2:	49 89 d1             	mov    %rdx,%r9
  400eb5:	5e                   	pop    %rsi
  400eb6:	48 89 e2             	mov    %rsp,%rdx
  400eb9:	48 83 e4 f0          	and    $0xfffffffffffffff0,%rsp
  400ebd:	50                   	push   %rax
  400ebe:	54                   	push   %rsp
  400ebf:	49 c7 c0 40 2f 40 00 	mov    $0x402f40,%r8
  400ec6:	48 c7 c1 d0 2e 40 00 	mov    $0x402ed0,%rcx
  400ecd:	48 c7 c7 b5 11 40 00 	mov    $0x4011b5,%rdi
  400ed4:	e8 77 fe ff ff       	callq  400d50 <__libc_start_main@plt>
  400ed9:	f4                   	hlt    
  400eda:	66 0f 1f 44 00 00    	nopw   0x0(%rax,%rax,1)

0000000000400ee0 <deregister_tm_clones>:
  400ee0:	b8 b7 54 60 00       	mov    $0x6054b7,%eax
  400ee5:	55                   	push   %rbp
  400ee6:	48 2d b0 54 60 00    	sub    $0x6054b0,%rax
  400eec:	48 83 f8 0e          	cmp    $0xe,%rax
  400ef0:	48 89 e5             	mov    %rsp,%rbp
  400ef3:	76 1b                	jbe    400f10 <deregister_tm_clones+0x30>
  400ef5:	b8 00 00 00 00       	mov    $0x0,%eax
  400efa:	48 85 c0             	test   %rax,%rax
  400efd:	74 11                	je     400f10 <deregister_tm_clones+0x30>
  400eff:	5d                   	pop    %rbp
  400f00:	bf b0 54 60 00       	mov    $0x6054b0,%edi
  400f05:	ff e0                	jmpq   *%rax
  400f07:	66 0f 1f 84 00 00 00 	nopw   0x0(%rax,%rax,1)
  400f0e:	00 00 
  400f10:	5d                   	pop    %rbp
  400f11:	c3                   	retq   
  400f12:	0f 1f 40 00          	nopl   0x0(%rax)
  400f16:	66 2e 0f 1f 84 00 00 	nopw   %cs:0x0(%rax,%rax,1)
  400f1d:	00 00 00 

0000000000400f20 <register_tm_clones>:
  400f20:	be b0 54 60 00       	mov    $0x6054b0,%esi
  400f25:	55                   	push   %rbp
  400f26:	48 81 ee b0 54 60 00 	sub    $0x6054b0,%rsi
  400f2d:	48 c1 fe 03          	sar    $0x3,%rsi
  400f31:	48 89 e5             	mov    %rsp,%rbp
  400f34:	48 89 f0             	mov    %rsi,%rax
  400f37:	48 c1 e8 3f          	shr    $0x3f,%rax
  400f3b:	48 01 c6             	add    %rax,%rsi
  400f3e:	48 d1 fe             	sar    %rsi
  400f41:	74 15                	je     400f58 <register_tm_clones+0x38>
  400f43:	b8 00 00 00 00       	mov    $0x0,%eax
  400f48:	48 85 c0             	test   %rax,%rax
  400f4b:	74 0b                	je     400f58 <register_tm_clones+0x38>
  400f4d:	5d                   	pop    %rbp
  400f4e:	bf b0 54 60 00       	mov    $0x6054b0,%edi
  400f53:	ff e0                	jmpq   *%rax
  400f55:	0f 1f 00             	nopl   (%rax)
  400f58:	5d                   	pop    %rbp
  400f59:	c3                   	retq   
  400f5a:	66 0f 1f 44 00 00    	nopw   0x0(%rax,%rax,1)

0000000000400f60 <__do_global_dtors_aux>:
  400f60:	80 3d 81 45 20 00 00 	cmpb   $0x0,0x204581(%rip)        # 6054e8 <completed.7594>
  400f67:	75 11                	jne    400f7a <__do_global_dtors_aux+0x1a>
  400f69:	55                   	push   %rbp
  400f6a:	48 89 e5             	mov    %rsp,%rbp
  400f6d:	e8 6e ff ff ff       	callq  400ee0 <deregister_tm_clones>
  400f72:	5d                   	pop    %rbp
  400f73:	c6 05 6e 45 20 00 01 	movb   $0x1,0x20456e(%rip)        # 6054e8 <completed.7594>
  400f7a:	f3 c3                	repz retq 
  400f7c:	0f 1f 40 00          	nopl   0x0(%rax)

0000000000400f80 <frame_dummy>:
  400f80:	bf 20 4e 60 00       	mov    $0x604e20,%edi
  400f85:	48 83 3f 00          	cmpq   $0x0,(%rdi)
  400f89:	75 05                	jne    400f90 <frame_dummy+0x10>
  400f8b:	eb 93                	jmp    400f20 <register_tm_clones>
  400f8d:	0f 1f 00             	nopl   (%rax)
  400f90:	b8 00 00 00 00       	mov    $0x0,%eax
  400f95:	48 85 c0             	test   %rax,%rax
  400f98:	74 f1                	je     400f8b <frame_dummy+0xb>
  400f9a:	55                   	push   %rbp
  400f9b:	48 89 e5             	mov    %rsp,%rbp
  400f9e:	ff d0                	callq  *%rax
  400fa0:	5d                   	pop    %rbp
  400fa1:	e9 7a ff ff ff       	jmpq   400f20 <register_tm_clones>

0000000000400fa6 <usage>:
  400fa6:	48 83 ec 08          	sub    $0x8,%rsp
  400faa:	48 89 fa             	mov    %rdi,%rdx
  400fad:	83 3d 74 45 20 00 00 	cmpl   $0x0,0x204574(%rip)        # 605528 <is_checker>
  400fb4:	74 3e                	je     400ff4 <usage+0x4e>
  400fb6:	be 58 2f 40 00       	mov    $0x402f58,%esi
  400fbb:	bf 01 00 00 00       	mov    $0x1,%edi
  400fc0:	b8 00 00 00 00       	mov    $0x0,%eax
  400fc5:	e8 36 fe ff ff       	callq  400e00 <__printf_chk@plt>
  400fca:	bf 90 2f 40 00       	mov    $0x402f90,%edi
  400fcf:	e8 fc fc ff ff       	callq  400cd0 <puts@plt>
  400fd4:	bf 08 31 40 00       	mov    $0x403108,%edi
  400fd9:	e8 f2 fc ff ff       	callq  400cd0 <puts@plt>
  400fde:	bf b8 2f 40 00       	mov    $0x402fb8,%edi
  400fe3:	e8 e8 fc ff ff       	callq  400cd0 <puts@plt>
  400fe8:	bf 22 31 40 00       	mov    $0x403122,%edi
  400fed:	e8 de fc ff ff       	callq  400cd0 <puts@plt>
  400ff2:	eb 32                	jmp    401026 <usage+0x80>
  400ff4:	be 3e 31 40 00       	mov    $0x40313e,%esi
  400ff9:	bf 01 00 00 00       	mov    $0x1,%edi
  400ffe:	b8 00 00 00 00       	mov    $0x0,%eax
  401003:	e8 f8 fd ff ff       	callq  400e00 <__printf_chk@plt>
  401008:	bf e0 2f 40 00       	mov    $0x402fe0,%edi
  40100d:	e8 be fc ff ff       	callq  400cd0 <puts@plt>
  401012:	bf 08 30 40 00       	mov    $0x403008,%edi
  401017:	e8 b4 fc ff ff       	callq  400cd0 <puts@plt>
  40101c:	bf 5c 31 40 00       	mov    $0x40315c,%edi
  401021:	e8 aa fc ff ff       	callq  400cd0 <puts@plt>
  401026:	bf 00 00 00 00       	mov    $0x0,%edi
  40102b:	e8 20 fe ff ff       	callq  400e50 <exit@plt>

0000000000401030 <initialize_target>:
  401030:	55                   	push   %rbp
  401031:	53                   	push   %rbx
  401032:	48 81 ec 18 21 00 00 	sub    $0x2118,%rsp
  401039:	89 f5                	mov    %esi,%ebp
  40103b:	64 48 8b 04 25 28 00 	mov    %fs:0x28,%rax
  401042:	00 00 
  401044:	48 89 84 24 08 21 00 	mov    %rax,0x2108(%rsp)
  40104b:	00 
  40104c:	31 c0                	xor    %eax,%eax
  40104e:	89 3d c4 44 20 00    	mov    %edi,0x2044c4(%rip)        # 605518 <check_level>
  401054:	8b 3d 0e 41 20 00    	mov    0x20410e(%rip),%edi        # 605168 <target_id>
  40105a:	e8 44 1e 00 00       	callq  402ea3 <gencookie>
  40105f:	89 05 bf 44 20 00    	mov    %eax,0x2044bf(%rip)        # 605524 <cookie>
  401065:	89 c7                	mov    %eax,%edi
  401067:	e8 37 1e 00 00       	callq  402ea3 <gencookie>
  40106c:	89 05 ae 44 20 00    	mov    %eax,0x2044ae(%rip)        # 605520 <authkey>
  401072:	8b 05 f0 40 20 00    	mov    0x2040f0(%rip),%eax        # 605168 <target_id>
  401078:	8d 78 01             	lea    0x1(%rax),%edi
  40107b:	e8 20 fc ff ff       	callq  400ca0 <srandom@plt>
  401080:	e8 3b fd ff ff       	callq  400dc0 <random@plt>
  401085:	89 c7                	mov    %eax,%edi
  401087:	e8 03 03 00 00       	callq  40138f <scramble>
  40108c:	89 c3                	mov    %eax,%ebx
  40108e:	85 ed                	test   %ebp,%ebp
  401090:	74 18                	je     4010aa <initialize_target+0x7a>
  401092:	bf 00 00 00 00       	mov    $0x0,%edi
  401097:	e8 14 fd ff ff       	callq  400db0 <time@plt>
  40109c:	89 c7                	mov    %eax,%edi
  40109e:	e8 fd fb ff ff       	callq  400ca0 <srandom@plt>
  4010a3:	e8 18 fd ff ff       	callq  400dc0 <random@plt>
  4010a8:	eb 05                	jmp    4010af <initialize_target+0x7f>
  4010aa:	b8 00 00 00 00       	mov    $0x0,%eax
  4010af:	01 c3                	add    %eax,%ebx
  4010b1:	0f b7 db             	movzwl %bx,%ebx
  4010b4:	8d 04 dd 00 01 00 00 	lea    0x100(,%rbx,8),%eax
  4010bb:	89 c0                	mov    %eax,%eax
  4010bd:	48 89 05 dc 43 20 00 	mov    %rax,0x2043dc(%rip)        # 6054a0 <buf_offset>
  4010c4:	c6 05 7d 50 20 00 72 	movb   $0x72,0x20507d(%rip)        # 606148 <target_prefix>
  4010cb:	83 3d d6 43 20 00 00 	cmpl   $0x0,0x2043d6(%rip)        # 6054a8 <notify>
  4010d2:	0f 84 bb 00 00 00    	je     401193 <initialize_target+0x163>
  4010d8:	83 3d 49 44 20 00 00 	cmpl   $0x0,0x204449(%rip)        # 605528 <is_checker>
  4010df:	0f 85 ae 00 00 00    	jne    401193 <initialize_target+0x163>
  4010e5:	be 00 01 00 00       	mov    $0x100,%esi
  4010ea:	48 89 e7             	mov    %rsp,%rdi
  4010ed:	e8 4e fd ff ff       	callq  400e40 <gethostname@plt>
  4010f2:	85 c0                	test   %eax,%eax
  4010f4:	74 25                	je     40111b <initialize_target+0xeb>
  4010f6:	bf 38 30 40 00       	mov    $0x403038,%edi
  4010fb:	e8 d0 fb ff ff       	callq  400cd0 <puts@plt>
  401100:	bf 08 00 00 00       	mov    $0x8,%edi
  401105:	e8 46 fd ff ff       	callq  400e50 <exit@plt>
  40110a:	48 89 e6             	mov    %rsp,%rsi
  40110d:	e8 6e fb ff ff       	callq  400c80 <strcasecmp@plt>
  401112:	85 c0                	test   %eax,%eax
  401114:	74 21                	je     401137 <initialize_target+0x107>
  401116:	83 c3 01             	add    $0x1,%ebx
  401119:	eb 05                	jmp    401120 <initialize_target+0xf0>
  40111b:	bb 00 00 00 00       	mov    $0x0,%ebx
  401120:	48 63 c3             	movslq %ebx,%rax
  401123:	48 8b 3c c5 80 51 60 	mov    0x605180(,%rax,8),%rdi
  40112a:	00 
  40112b:	48 85 ff             	test   %rdi,%rdi
  40112e:	75 da                	jne    40110a <initialize_target+0xda>
  401130:	b8 00 00 00 00       	mov    $0x0,%eax
  401135:	eb 05                	jmp    40113c <initialize_target+0x10c>
  401137:	b8 01 00 00 00       	mov    $0x1,%eax
  40113c:	85 c0                	test   %eax,%eax
  40113e:	75 1c                	jne    40115c <initialize_target+0x12c>
  401140:	48 89 e2             	mov    %rsp,%rdx
  401143:	be 70 30 40 00       	mov    $0x403070,%esi
  401148:	bf 01 00 00 00       	mov    $0x1,%edi
  40114d:	e8 ae fc ff ff       	callq  400e00 <__printf_chk@plt>
  401152:	bf 08 00 00 00       	mov    $0x8,%edi
  401157:	e8 f4 fc ff ff       	callq  400e50 <exit@plt>
  40115c:	48 8d bc 24 00 01 00 	lea    0x100(%rsp),%rdi
  401163:	00 
  401164:	e8 a4 1a 00 00       	callq  402c0d <init_driver>
  401169:	85 c0                	test   %eax,%eax
  40116b:	79 26                	jns    401193 <initialize_target+0x163>
  40116d:	48 8d 94 24 00 01 00 	lea    0x100(%rsp),%rdx
  401174:	00 
  401175:	be b0 30 40 00       	mov    $0x4030b0,%esi
  40117a:	bf 01 00 00 00       	mov    $0x1,%edi
  40117f:	b8 00 00 00 00       	mov    $0x0,%eax
  401184:	e8 77 fc ff ff       	callq  400e00 <__printf_chk@plt>
  401189:	bf 08 00 00 00       	mov    $0x8,%edi
  40118e:	e8 bd fc ff ff       	callq  400e50 <exit@plt>
  401193:	48 8b 84 24 08 21 00 	mov    0x2108(%rsp),%rax
  40119a:	00 
  40119b:	64 48 33 04 25 28 00 	xor    %fs:0x28,%rax
  4011a2:	00 00 
  4011a4:	74 05                	je     4011ab <initialize_target+0x17b>
  4011a6:	e8 45 fb ff ff       	callq  400cf0 <__stack_chk_fail@plt>
  4011ab:	48 81 c4 18 21 00 00 	add    $0x2118,%rsp
  4011b2:	5b                   	pop    %rbx
  4011b3:	5d                   	pop    %rbp
  4011b4:	c3                   	retq   

00000000004011b5 <main>:
  4011b5:	41 56                	push   %r14
  4011b7:	41 55                	push   %r13
  4011b9:	41 54                	push   %r12
  4011bb:	55                   	push   %rbp
  4011bc:	53                   	push   %rbx
  4011bd:	41 89 fc             	mov    %edi,%r12d
  4011c0:	48 89 f3             	mov    %rsi,%rbx
  4011c3:	be 48 1f 40 00       	mov    $0x401f48,%esi
  4011c8:	bf 0b 00 00 00       	mov    $0xb,%edi
  4011cd:	e8 8e fb ff ff       	callq  400d60 <signal@plt>
  4011d2:	be fa 1e 40 00       	mov    $0x401efa,%esi
  4011d7:	bf 07 00 00 00       	mov    $0x7,%edi
  4011dc:	e8 7f fb ff ff       	callq  400d60 <signal@plt>
  4011e1:	be 96 1f 40 00       	mov    $0x401f96,%esi
  4011e6:	bf 04 00 00 00       	mov    $0x4,%edi
  4011eb:	e8 70 fb ff ff       	callq  400d60 <signal@plt>
  4011f0:	83 3d 31 43 20 00 00 	cmpl   $0x0,0x204331(%rip)        # 605528 <is_checker>
  4011f7:	74 20                	je     401219 <main+0x64>
  4011f9:	be e4 1f 40 00       	mov    $0x401fe4,%esi
  4011fe:	bf 0e 00 00 00       	mov    $0xe,%edi
  401203:	e8 58 fb ff ff       	callq  400d60 <signal@plt>
  401208:	bf 05 00 00 00       	mov    $0x5,%edi
  40120d:	e8 0e fb ff ff       	callq  400d20 <alarm@plt>
  401212:	bd 7a 31 40 00       	mov    $0x40317a,%ebp
  401217:	eb 05                	jmp    40121e <main+0x69>
  401219:	bd 75 31 40 00       	mov    $0x403175,%ebp
  40121e:	48 8b 05 9b 42 20 00 	mov    0x20429b(%rip),%rax        # 6054c0 <stdin@@GLIBC_2.2.5>
  401225:	48 89 05 e4 42 20 00 	mov    %rax,0x2042e4(%rip)        # 605510 <infile>
  40122c:	41 bd 00 00 00 00    	mov    $0x0,%r13d
  401232:	41 be 00 00 00 00    	mov    $0x0,%r14d
  401238:	e9 c6 00 00 00       	jmpq   401303 <main+0x14e>
  40123d:	83 e8 61             	sub    $0x61,%eax
  401240:	3c 10                	cmp    $0x10,%al
  401242:	0f 87 9c 00 00 00    	ja     4012e4 <main+0x12f>
  401248:	0f b6 c0             	movzbl %al,%eax
  40124b:	ff 24 c5 c0 31 40 00 	jmpq   *0x4031c0(,%rax,8)
  401252:	48 8b 3b             	mov    (%rbx),%rdi
  401255:	e8 4c fd ff ff       	callq  400fa6 <usage>
  40125a:	be a1 32 40 00       	mov    $0x4032a1,%esi
  40125f:	48 8b 3d 62 42 20 00 	mov    0x204262(%rip),%rdi        # 6054c8 <optarg@@GLIBC_2.2.5>
  401266:	e8 a5 fb ff ff       	callq  400e10 <fopen@plt>
  40126b:	48 89 05 9e 42 20 00 	mov    %rax,0x20429e(%rip)        # 605510 <infile>
  401272:	48 85 c0             	test   %rax,%rax
  401275:	0f 85 88 00 00 00    	jne    401303 <main+0x14e>
  40127b:	48 8b 0d 46 42 20 00 	mov    0x204246(%rip),%rcx        # 6054c8 <optarg@@GLIBC_2.2.5>
  401282:	ba 82 31 40 00       	mov    $0x403182,%edx
  401287:	be 01 00 00 00       	mov    $0x1,%esi
  40128c:	48 8b 3d 4d 42 20 00 	mov    0x20424d(%rip),%rdi        # 6054e0 <stderr@@GLIBC_2.2.5>
  401293:	e8 d8 fb ff ff       	callq  400e70 <__fprintf_chk@plt>
  401298:	b8 01 00 00 00       	mov    $0x1,%eax
  40129d:	e9 e4 00 00 00       	jmpq   401386 <main+0x1d1>
  4012a2:	ba 10 00 00 00       	mov    $0x10,%edx
  4012a7:	be 00 00 00 00       	mov    $0x0,%esi
  4012ac:	48 8b 3d 15 42 20 00 	mov    0x204215(%rip),%rdi        # 6054c8 <optarg@@GLIBC_2.2.5>
  4012b3:	e8 78 fb ff ff       	callq  400e30 <strtoul@plt>
  4012b8:	41 89 c6             	mov    %eax,%r14d
  4012bb:	eb 46                	jmp    401303 <main+0x14e>
  4012bd:	ba 0a 00 00 00       	mov    $0xa,%edx
  4012c2:	be 00 00 00 00       	mov    $0x0,%esi
  4012c7:	48 8b 3d fa 41 20 00 	mov    0x2041fa(%rip),%rdi        # 6054c8 <optarg@@GLIBC_2.2.5>
  4012ce:	e8 bd fa ff ff       	callq  400d90 <strtol@plt>
  4012d3:	41 89 c5             	mov    %eax,%r13d
  4012d6:	eb 2b                	jmp    401303 <main+0x14e>
  4012d8:	c7 05 c6 41 20 00 00 	movl   $0x0,0x2041c6(%rip)        # 6054a8 <notify>
  4012df:	00 00 00 
  4012e2:	eb 1f                	jmp    401303 <main+0x14e>
  4012e4:	0f be d2             	movsbl %dl,%edx
  4012e7:	be 9f 31 40 00       	mov    $0x40319f,%esi
  4012ec:	bf 01 00 00 00       	mov    $0x1,%edi
  4012f1:	b8 00 00 00 00       	mov    $0x0,%eax
  4012f6:	e8 05 fb ff ff       	callq  400e00 <__printf_chk@plt>
  4012fb:	48 8b 3b             	mov    (%rbx),%rdi
  4012fe:	e8 a3 fc ff ff       	callq  400fa6 <usage>
  401303:	48 89 ea             	mov    %rbp,%rdx
  401306:	48 89 de             	mov    %rbx,%rsi
  401309:	44 89 e7             	mov    %r12d,%edi
  40130c:	e8 0f fb ff ff       	callq  400e20 <getopt@plt>
  401311:	89 c2                	mov    %eax,%edx
  401313:	3c ff                	cmp    $0xff,%al
  401315:	0f 85 22 ff ff ff    	jne    40123d <main+0x88>
  40131b:	be 01 00 00 00       	mov    $0x1,%esi
  401320:	44 89 ef             	mov    %r13d,%edi
  401323:	e8 08 fd ff ff       	callq  401030 <initialize_target>
  401328:	83 3d f9 41 20 00 00 	cmpl   $0x0,0x2041f9(%rip)        # 605528 <is_checker>
  40132f:	74 2a                	je     40135b <main+0x1a6>
  401331:	44 3b 35 e8 41 20 00 	cmp    0x2041e8(%rip),%r14d        # 605520 <authkey>
  401338:	74 21                	je     40135b <main+0x1a6>
  40133a:	44 89 f2             	mov    %r14d,%edx
  40133d:	be d8 30 40 00       	mov    $0x4030d8,%esi
  401342:	bf 01 00 00 00       	mov    $0x1,%edi
  401347:	b8 00 00 00 00       	mov    $0x0,%eax
  40134c:	e8 af fa ff ff       	callq  400e00 <__printf_chk@plt>
  401351:	b8 00 00 00 00       	mov    $0x0,%eax
  401356:	e8 3b 08 00 00       	callq  401b96 <check_fail>
  40135b:	8b 15 c3 41 20 00    	mov    0x2041c3(%rip),%edx        # 605524 <cookie>
  401361:	be b2 31 40 00       	mov    $0x4031b2,%esi
  401366:	bf 01 00 00 00       	mov    $0x1,%edi
  40136b:	b8 00 00 00 00       	mov    $0x0,%eax
  401370:	e8 8b fa ff ff       	callq  400e00 <__printf_chk@plt>
  401375:	48 8b 3d 24 41 20 00 	mov    0x204124(%rip),%rdi        # 6054a0 <buf_offset>
  40137c:	e8 b6 0c 00 00       	callq  402037 <launch>
  401381:	b8 00 00 00 00       	mov    $0x0,%eax
  401386:	5b                   	pop    %rbx
  401387:	5d                   	pop    %rbp
  401388:	41 5c                	pop    %r12
  40138a:	41 5d                	pop    %r13
  40138c:	41 5e                	pop    %r14
  40138e:	c3                   	retq   

000000000040138f <scramble>:
  40138f:	48 83 ec 38          	sub    $0x38,%rsp
  401393:	64 48 8b 04 25 28 00 	mov    %fs:0x28,%rax
  40139a:	00 00 
  40139c:	48 89 44 24 28       	mov    %rax,0x28(%rsp)
  4013a1:	31 c0                	xor    %eax,%eax
  4013a3:	eb 10                	jmp    4013b5 <scramble+0x26>
  4013a5:	69 d0 d1 40 00 00    	imul   $0x40d1,%eax,%edx
  4013ab:	01 fa                	add    %edi,%edx
  4013ad:	89 c1                	mov    %eax,%ecx
  4013af:	89 14 8c             	mov    %edx,(%rsp,%rcx,4)
  4013b2:	83 c0 01             	add    $0x1,%eax
  4013b5:	83 f8 09             	cmp    $0x9,%eax
  4013b8:	76 eb                	jbe    4013a5 <scramble+0x16>
  4013ba:	8b 04 24             	mov    (%rsp),%eax
  4013bd:	69 c0 d8 d4 00 00    	imul   $0xd4d8,%eax,%eax
  4013c3:	89 04 24             	mov    %eax,(%rsp)
  4013c6:	8b 04 24             	mov    (%rsp),%eax
  4013c9:	69 c0 51 3b 00 00    	imul   $0x3b51,%eax,%eax
  4013cf:	89 04 24             	mov    %eax,(%rsp)
  4013d2:	8b 44 24 18          	mov    0x18(%rsp),%eax
  4013d6:	69 c0 c8 8d 00 00    	imul   $0x8dc8,%eax,%eax
  4013dc:	89 44 24 18          	mov    %eax,0x18(%rsp)
  4013e0:	8b 44 24 10          	mov    0x10(%rsp),%eax
  4013e4:	69 c0 01 87 00 00    	imul   $0x8701,%eax,%eax
  4013ea:	89 44 24 10          	mov    %eax,0x10(%rsp)
  4013ee:	8b 44 24 10          	mov    0x10(%rsp),%eax
  4013f2:	69 c0 ca 73 00 00    	imul   $0x73ca,%eax,%eax
  4013f8:	89 44 24 10          	mov    %eax,0x10(%rsp)
  4013fc:	8b 44 24 24          	mov    0x24(%rsp),%eax
  401400:	69 c0 01 c3 00 00    	imul   $0xc301,%eax,%eax
  401406:	89 44 24 24          	mov    %eax,0x24(%rsp)
  40140a:	8b 44 24 04          	mov    0x4(%rsp),%eax
  40140e:	69 c0 3a 9e 00 00    	imul   $0x9e3a,%eax,%eax
  401414:	89 44 24 04          	mov    %eax,0x4(%rsp)
  401418:	8b 44 24 14          	mov    0x14(%rsp),%eax
  40141c:	69 c0 68 94 00 00    	imul   $0x9468,%eax,%eax
  401422:	89 44 24 14          	mov    %eax,0x14(%rsp)
  401426:	8b 44 24 14          	mov    0x14(%rsp),%eax
  40142a:	69 c0 11 68 00 00    	imul   $0x6811,%eax,%eax
  401430:	89 44 24 14          	mov    %eax,0x14(%rsp)
  401434:	8b 44 24 08          	mov    0x8(%rsp),%eax
  401438:	69 c0 23 22 00 00    	imul   $0x2223,%eax,%eax
  40143e:	89 44 24 08          	mov    %eax,0x8(%rsp)
  401442:	8b 44 24 20          	mov    0x20(%rsp),%eax
  401446:	69 c0 de 63 00 00    	imul   $0x63de,%eax,%eax
  40144c:	89 44 24 20          	mov    %eax,0x20(%rsp)
  401450:	8b 44 24 1c          	mov    0x1c(%rsp),%eax
  401454:	69 c0 91 eb 00 00    	imul   $0xeb91,%eax,%eax
  40145a:	89 44 24 1c          	mov    %eax,0x1c(%rsp)
  40145e:	8b 44 24 1c          	mov    0x1c(%rsp),%eax
  401462:	69 c0 ad c4 00 00    	imul   $0xc4ad,%eax,%eax
  401468:	89 44 24 1c          	mov    %eax,0x1c(%rsp)
  40146c:	8b 44 24 20          	mov    0x20(%rsp),%eax
  401470:	69 c0 b4 ff 00 00    	imul   $0xffb4,%eax,%eax
  401476:	89 44 24 20          	mov    %eax,0x20(%rsp)
  40147a:	8b 44 24 10          	mov    0x10(%rsp),%eax
  40147e:	69 c0 7e a2 00 00    	imul   $0xa27e,%eax,%eax
  401484:	89 44 24 10          	mov    %eax,0x10(%rsp)
  401488:	8b 44 24 10          	mov    0x10(%rsp),%eax
  40148c:	69 c0 70 48 00 00    	imul   $0x4870,%eax,%eax
  401492:	89 44 24 10          	mov    %eax,0x10(%rsp)
  401496:	8b 44 24 04          	mov    0x4(%rsp),%eax
  40149a:	69 c0 16 47 00 00    	imul   $0x4716,%eax,%eax
  4014a0:	89 44 24 04          	mov    %eax,0x4(%rsp)
  4014a4:	8b 44 24 20          	mov    0x20(%rsp),%eax
  4014a8:	69 c0 d3 a6 00 00    	imul   $0xa6d3,%eax,%eax
  4014ae:	89 44 24 20          	mov    %eax,0x20(%rsp)
  4014b2:	8b 44 24 20          	mov    0x20(%rsp),%eax
  4014b6:	69 c0 72 4e 00 00    	imul   $0x4e72,%eax,%eax
  4014bc:	89 44 24 20          	mov    %eax,0x20(%rsp)
  4014c0:	8b 44 24 20          	mov    0x20(%rsp),%eax
  4014c4:	69 c0 ce d6 00 00    	imul   $0xd6ce,%eax,%eax
  4014ca:	89 44 24 20          	mov    %eax,0x20(%rsp)
  4014ce:	8b 44 24 1c          	mov    0x1c(%rsp),%eax
  4014d2:	69 c0 58 7e 00 00    	imul   $0x7e58,%eax,%eax
  4014d8:	89 44 24 1c          	mov    %eax,0x1c(%rsp)
  4014dc:	8b 44 24 1c          	mov    0x1c(%rsp),%eax
  4014e0:	69 c0 48 f9 00 00    	imul   $0xf948,%eax,%eax
  4014e6:	89 44 24 1c          	mov    %eax,0x1c(%rsp)
  4014ea:	8b 44 24 08          	mov    0x8(%rsp),%eax
  4014ee:	69 c0 d9 19 00 00    	imul   $0x19d9,%eax,%eax
  4014f4:	89 44 24 08          	mov    %eax,0x8(%rsp)
  4014f8:	8b 44 24 08          	mov    0x8(%rsp),%eax
  4014fc:	69 c0 42 23 00 00    	imul   $0x2342,%eax,%eax
  401502:	89 44 24 08          	mov    %eax,0x8(%rsp)
  401506:	8b 44 24 24          	mov    0x24(%rsp),%eax
  40150a:	69 c0 d7 d2 00 00    	imul   $0xd2d7,%eax,%eax
  401510:	89 44 24 24          	mov    %eax,0x24(%rsp)
  401514:	8b 44 24 1c          	mov    0x1c(%rsp),%eax
  401518:	69 c0 20 a8 00 00    	imul   $0xa820,%eax,%eax
  40151e:	89 44 24 1c          	mov    %eax,0x1c(%rsp)
  401522:	8b 44 24 1c          	mov    0x1c(%rsp),%eax
  401526:	69 c0 c0 11 00 00    	imul   $0x11c0,%eax,%eax
  40152c:	89 44 24 1c          	mov    %eax,0x1c(%rsp)
  401530:	8b 44 24 14          	mov    0x14(%rsp),%eax
  401534:	69 c0 5c 02 00 00    	imul   $0x25c,%eax,%eax
  40153a:	89 44 24 14          	mov    %eax,0x14(%rsp)
  40153e:	8b 44 24 10          	mov    0x10(%rsp),%eax
  401542:	69 c0 1a 03 00 00    	imul   $0x31a,%eax,%eax
  401548:	89 44 24 10          	mov    %eax,0x10(%rsp)
  40154c:	8b 44 24 04          	mov    0x4(%rsp),%eax
  401550:	69 c0 0b de 00 00    	imul   $0xde0b,%eax,%eax
  401556:	89 44 24 04          	mov    %eax,0x4(%rsp)
  40155a:	8b 44 24 04          	mov    0x4(%rsp),%eax
  40155e:	69 c0 ff 4f 00 00    	imul   $0x4fff,%eax,%eax
  401564:	89 44 24 04          	mov    %eax,0x4(%rsp)
  401568:	8b 44 24 1c          	mov    0x1c(%rsp),%eax
  40156c:	69 c0 ef 1c 00 00    	imul   $0x1cef,%eax,%eax
  401572:	89 44 24 1c          	mov    %eax,0x1c(%rsp)
  401576:	8b 44 24 08          	mov    0x8(%rsp),%eax
  40157a:	69 c0 3d aa 00 00    	imul   $0xaa3d,%eax,%eax
  401580:	89 44 24 08          	mov    %eax,0x8(%rsp)
  401584:	8b 44 24 0c          	mov    0xc(%rsp),%eax
  401588:	69 c0 f4 6b 00 00    	imul   $0x6bf4,%eax,%eax
  40158e:	89 44 24 0c          	mov    %eax,0xc(%rsp)
  401592:	8b 44 24 08          	mov    0x8(%rsp),%eax
  401596:	69 c0 96 f1 00 00    	imul   $0xf196,%eax,%eax
  40159c:	89 44 24 08          	mov    %eax,0x8(%rsp)
  4015a0:	8b 44 24 14          	mov    0x14(%rsp),%eax
  4015a4:	69 c0 eb ba 00 00    	imul   $0xbaeb,%eax,%eax
  4015aa:	89 44 24 14          	mov    %eax,0x14(%rsp)
  4015ae:	8b 44 24 04          	mov    0x4(%rsp),%eax
  4015b2:	69 c0 92 dc 00 00    	imul   $0xdc92,%eax,%eax
  4015b8:	89 44 24 04          	mov    %eax,0x4(%rsp)
  4015bc:	8b 44 24 04          	mov    0x4(%rsp),%eax
  4015c0:	69 c0 82 8c 00 00    	imul   $0x8c82,%eax,%eax
  4015c6:	89 44 24 04          	mov    %eax,0x4(%rsp)
  4015ca:	8b 44 24 18          	mov    0x18(%rsp),%eax
  4015ce:	69 c0 e3 41 00 00    	imul   $0x41e3,%eax,%eax
  4015d4:	89 44 24 18          	mov    %eax,0x18(%rsp)
  4015d8:	8b 44 24 18          	mov    0x18(%rsp),%eax
  4015dc:	69 c0 55 78 00 00    	imul   $0x7855,%eax,%eax
  4015e2:	89 44 24 18          	mov    %eax,0x18(%rsp)
  4015e6:	8b 44 24 1c          	mov    0x1c(%rsp),%eax
  4015ea:	69 c0 2a f5 00 00    	imul   $0xf52a,%eax,%eax
  4015f0:	89 44 24 1c          	mov    %eax,0x1c(%rsp)
  4015f4:	8b 44 24 18          	mov    0x18(%rsp),%eax
  4015f8:	69 c0 70 4b 00 00    	imul   $0x4b70,%eax,%eax
  4015fe:	89 44 24 18          	mov    %eax,0x18(%rsp)
  401602:	8b 04 24             	mov    (%rsp),%eax
  401605:	69 c0 26 b4 00 00    	imul   $0xb426,%eax,%eax
  40160b:	89 04 24             	mov    %eax,(%rsp)
  40160e:	8b 44 24 0c          	mov    0xc(%rsp),%eax
  401612:	69 c0 57 dd 00 00    	imul   $0xdd57,%eax,%eax
  401618:	89 44 24 0c          	mov    %eax,0xc(%rsp)
  40161c:	8b 44 24 18          	mov    0x18(%rsp),%eax
  401620:	69 c0 dd 4f 00 00    	imul   $0x4fdd,%eax,%eax
  401626:	89 44 24 18          	mov    %eax,0x18(%rsp)
  40162a:	8b 44 24 20          	mov    0x20(%rsp),%eax
  40162e:	69 c0 da 5c 00 00    	imul   $0x5cda,%eax,%eax
  401634:	89 44 24 20          	mov    %eax,0x20(%rsp)
  401638:	8b 44 24 0c          	mov    0xc(%rsp),%eax
  40163c:	69 c0 de e1 00 00    	imul   $0xe1de,%eax,%eax
  401642:	89 44 24 0c          	mov    %eax,0xc(%rsp)
  401646:	8b 44 24 0c          	mov    0xc(%rsp),%eax
  40164a:	69 c0 f1 36 00 00    	imul   $0x36f1,%eax,%eax
  401650:	89 44 24 0c          	mov    %eax,0xc(%rsp)
  401654:	8b 44 24 14          	mov    0x14(%rsp),%eax
  401658:	69 c0 8c 3d 00 00    	imul   $0x3d8c,%eax,%eax
  40165e:	89 44 24 14          	mov    %eax,0x14(%rsp)
  401662:	8b 44 24 20          	mov    0x20(%rsp),%eax
  401666:	69 c0 ca 84 00 00    	imul   $0x84ca,%eax,%eax
  40166c:	89 44 24 20          	mov    %eax,0x20(%rsp)
  401670:	8b 44 24 24          	mov    0x24(%rsp),%eax
  401674:	69 c0 a8 e5 00 00    	imul   $0xe5a8,%eax,%eax
  40167a:	89 44 24 24          	mov    %eax,0x24(%rsp)
  40167e:	8b 44 24 20          	mov    0x20(%rsp),%eax
  401682:	69 c0 11 9f 00 00    	imul   $0x9f11,%eax,%eax
  401688:	89 44 24 20          	mov    %eax,0x20(%rsp)
  40168c:	8b 44 24 1c          	mov    0x1c(%rsp),%eax
  401690:	69 c0 e9 f3 00 00    	imul   $0xf3e9,%eax,%eax
  401696:	89 44 24 1c          	mov    %eax,0x1c(%rsp)
  40169a:	8b 04 24             	mov    (%rsp),%eax
  40169d:	69 c0 a5 b8 00 00    	imul   $0xb8a5,%eax,%eax
  4016a3:	89 04 24             	mov    %eax,(%rsp)
  4016a6:	8b 44 24 10          	mov    0x10(%rsp),%eax
  4016aa:	69 c0 58 db 00 00    	imul   $0xdb58,%eax,%eax
  4016b0:	89 44 24 10          	mov    %eax,0x10(%rsp)
  4016b4:	8b 44 24 08          	mov    0x8(%rsp),%eax
  4016b8:	69 c0 87 4a 00 00    	imul   $0x4a87,%eax,%eax
  4016be:	89 44 24 08          	mov    %eax,0x8(%rsp)
  4016c2:	8b 44 24 0c          	mov    0xc(%rsp),%eax
  4016c6:	69 c0 6f 51 00 00    	imul   $0x516f,%eax,%eax
  4016cc:	89 44 24 0c          	mov    %eax,0xc(%rsp)
  4016d0:	8b 44 24 04          	mov    0x4(%rsp),%eax
  4016d4:	69 c0 6c d7 00 00    	imul   $0xd76c,%eax,%eax
  4016da:	89 44 24 04          	mov    %eax,0x4(%rsp)
  4016de:	8b 44 24 04          	mov    0x4(%rsp),%eax
  4016e2:	69 c0 c3 e3 00 00    	imul   $0xe3c3,%eax,%eax
  4016e8:	89 44 24 04          	mov    %eax,0x4(%rsp)
  4016ec:	8b 44 24 08          	mov    0x8(%rsp),%eax
  4016f0:	69 c0 d6 bc 00 00    	imul   $0xbcd6,%eax,%eax
  4016f6:	89 44 24 08          	mov    %eax,0x8(%rsp)
  4016fa:	8b 44 24 08          	mov    0x8(%rsp),%eax
  4016fe:	69 c0 25 70 00 00    	imul   $0x7025,%eax,%eax
  401704:	89 44 24 08          	mov    %eax,0x8(%rsp)
  401708:	8b 44 24 1c          	mov    0x1c(%rsp),%eax
  40170c:	69 c0 7c d3 00 00    	imul   $0xd37c,%eax,%eax
  401712:	89 44 24 1c          	mov    %eax,0x1c(%rsp)
  401716:	8b 44 24 20          	mov    0x20(%rsp),%eax
  40171a:	69 c0 7a 93 00 00    	imul   $0x937a,%eax,%eax
  401720:	89 44 24 20          	mov    %eax,0x20(%rsp)
  401724:	8b 44 24 10          	mov    0x10(%rsp),%eax
  401728:	69 c0 1e de 00 00    	imul   $0xde1e,%eax,%eax
  40172e:	89 44 24 10          	mov    %eax,0x10(%rsp)
  401732:	8b 44 24 20          	mov    0x20(%rsp),%eax
  401736:	69 c0 53 ad 00 00    	imul   $0xad53,%eax,%eax
  40173c:	89 44 24 20          	mov    %eax,0x20(%rsp)
  401740:	8b 44 24 04          	mov    0x4(%rsp),%eax
  401744:	8d 14 80             	lea    (%rax,%rax,4),%edx
  401747:	8d 04 d5 00 00 00 00 	lea    0x0(,%rdx,8),%eax
  40174e:	89 44 24 04          	mov    %eax,0x4(%rsp)
  401752:	8b 44 24 20          	mov    0x20(%rsp),%eax
  401756:	69 c0 9e a2 00 00    	imul   $0xa29e,%eax,%eax
  40175c:	89 44 24 20          	mov    %eax,0x20(%rsp)
  401760:	8b 44 24 14          	mov    0x14(%rsp),%eax
  401764:	69 c0 35 55 00 00    	imul   $0x5535,%eax,%eax
  40176a:	89 44 24 14          	mov    %eax,0x14(%rsp)
  40176e:	8b 44 24 08          	mov    0x8(%rsp),%eax
  401772:	69 c0 cd ca 00 00    	imul   $0xcacd,%eax,%eax
  401778:	89 44 24 08          	mov    %eax,0x8(%rsp)
  40177c:	8b 44 24 0c          	mov    0xc(%rsp),%eax
  401780:	69 c0 53 cc 00 00    	imul   $0xcc53,%eax,%eax
  401786:	89 44 24 0c          	mov    %eax,0xc(%rsp)
  40178a:	8b 44 24 10          	mov    0x10(%rsp),%eax
  40178e:	69 c0 d4 3e 00 00    	imul   $0x3ed4,%eax,%eax
  401794:	89 44 24 10          	mov    %eax,0x10(%rsp)
  401798:	8b 44 24 0c          	mov    0xc(%rsp),%eax
  40179c:	69 c0 a7 76 00 00    	imul   $0x76a7,%eax,%eax
  4017a2:	89 44 24 0c          	mov    %eax,0xc(%rsp)
  4017a6:	8b 44 24 14          	mov    0x14(%rsp),%eax
  4017aa:	69 c0 d1 ac 00 00    	imul   $0xacd1,%eax,%eax
  4017b0:	89 44 24 14          	mov    %eax,0x14(%rsp)
  4017b4:	8b 44 24 0c          	mov    0xc(%rsp),%eax
  4017b8:	69 c0 d9 95 00 00    	imul   $0x95d9,%eax,%eax
  4017be:	89 44 24 0c          	mov    %eax,0xc(%rsp)
  4017c2:	8b 44 24 04          	mov    0x4(%rsp),%eax
  4017c6:	69 c0 d6 02 00 00    	imul   $0x2d6,%eax,%eax
  4017cc:	89 44 24 04          	mov    %eax,0x4(%rsp)
  4017d0:	8b 44 24 20          	mov    0x20(%rsp),%eax
  4017d4:	69 c0 35 c4 00 00    	imul   $0xc435,%eax,%eax
  4017da:	89 44 24 20          	mov    %eax,0x20(%rsp)
  4017de:	8b 44 24 20          	mov    0x20(%rsp),%eax
  4017e2:	69 c0 60 6c 00 00    	imul   $0x6c60,%eax,%eax
  4017e8:	89 44 24 20          	mov    %eax,0x20(%rsp)
  4017ec:	ba 00 00 00 00       	mov    $0x0,%edx
  4017f1:	b8 00 00 00 00       	mov    $0x0,%eax
  4017f6:	eb 0a                	jmp    401802 <scramble+0x473>
  4017f8:	89 d1                	mov    %edx,%ecx
  4017fa:	8b 0c 8c             	mov    (%rsp,%rcx,4),%ecx
  4017fd:	01 c8                	add    %ecx,%eax
  4017ff:	83 c2 01             	add    $0x1,%edx
  401802:	83 fa 09             	cmp    $0x9,%edx
  401805:	76 f1                	jbe    4017f8 <scramble+0x469>
  401807:	48 8b 74 24 28       	mov    0x28(%rsp),%rsi
  40180c:	64 48 33 34 25 28 00 	xor    %fs:0x28,%rsi
  401813:	00 00 
  401815:	74 05                	je     40181c <scramble+0x48d>
  401817:	e8 d4 f4 ff ff       	callq  400cf0 <__stack_chk_fail@plt>
  40181c:	48 83 c4 38          	add    $0x38,%rsp
  401820:	c3                   	retq   

0000000000401821 <getbuf>:
  401821:	48 83 ec 38          	sub    $0x38,%rsp
  401825:	48 89 e7             	mov    %rsp,%rdi
  401828:	e8 9e 03 00 00       	callq  401bcb <Gets>
  40182d:	b8 01 00 00 00       	mov    $0x1,%eax
  401832:	48 83 c4 38          	add    $0x38,%rsp
  401836:	c3                   	retq   

0000000000401837 <touch1>:
  401837:	48 83 ec 08          	sub    $0x8,%rsp
  40183b:	c7 05 d7 3c 20 00 01 	movl   $0x1,0x203cd7(%rip)        # 60551c <vlevel>
  401842:	00 00 00 
  401845:	bf a3 32 40 00       	mov    $0x4032a3,%edi
  40184a:	e8 81 f4 ff ff       	callq  400cd0 <puts@plt>
  40184f:	bf 01 00 00 00       	mov    $0x1,%edi
  401854:	e8 b7 05 00 00       	callq  401e10 <validate>
  401859:	bf 00 00 00 00       	mov    $0x0,%edi
  40185e:	e8 ed f5 ff ff       	callq  400e50 <exit@plt>

0000000000401863 <touch2>:
  401863:	48 83 ec 08          	sub    $0x8,%rsp
  401867:	89 fa                	mov    %edi,%edx
  401869:	c7 05 a9 3c 20 00 02 	movl   $0x2,0x203ca9(%rip)        # 60551c <vlevel>
  401870:	00 00 00 
  401873:	39 3d ab 3c 20 00    	cmp    %edi,0x203cab(%rip)        # 605524 <cookie>
  401879:	75 20                	jne    40189b <touch2+0x38>
  40187b:	be c8 32 40 00       	mov    $0x4032c8,%esi
  401880:	bf 01 00 00 00       	mov    $0x1,%edi
  401885:	b8 00 00 00 00       	mov    $0x0,%eax
  40188a:	e8 71 f5 ff ff       	callq  400e00 <__printf_chk@plt>
  40188f:	bf 02 00 00 00       	mov    $0x2,%edi
  401894:	e8 77 05 00 00       	callq  401e10 <validate>
  401899:	eb 1e                	jmp    4018b9 <touch2+0x56>
  40189b:	be f0 32 40 00       	mov    $0x4032f0,%esi
  4018a0:	bf 01 00 00 00       	mov    $0x1,%edi
  4018a5:	b8 00 00 00 00       	mov    $0x0,%eax
  4018aa:	e8 51 f5 ff ff       	callq  400e00 <__printf_chk@plt>
  4018af:	bf 02 00 00 00       	mov    $0x2,%edi
  4018b4:	e8 19 06 00 00       	callq  401ed2 <fail>
  4018b9:	bf 00 00 00 00       	mov    $0x0,%edi
  4018be:	e8 8d f5 ff ff       	callq  400e50 <exit@plt>

00000000004018c3 <hexmatch>:
  4018c3:	41 54                	push   %r12
  4018c5:	55                   	push   %rbp
  4018c6:	53                   	push   %rbx
  4018c7:	48 83 c4 80          	add    $0xffffffffffffff80,%rsp
  4018cb:	89 fd                	mov    %edi,%ebp
  4018cd:	48 89 f3             	mov    %rsi,%rbx
  4018d0:	64 48 8b 04 25 28 00 	mov    %fs:0x28,%rax
  4018d7:	00 00 
  4018d9:	48 89 44 24 78       	mov    %rax,0x78(%rsp)
  4018de:	31 c0                	xor    %eax,%eax
  4018e0:	e8 db f4 ff ff       	callq  400dc0 <random@plt>
  4018e5:	48 89 c1             	mov    %rax,%rcx
  4018e8:	48 ba 0b d7 a3 70 3d 	movabs $0xa3d70a3d70a3d70b,%rdx
  4018ef:	0a d7 a3 
  4018f2:	48 f7 ea             	imul   %rdx
  4018f5:	48 01 ca             	add    %rcx,%rdx
  4018f8:	48 c1 fa 06          	sar    $0x6,%rdx
  4018fc:	48 89 c8             	mov    %rcx,%rax
  4018ff:	48 c1 f8 3f          	sar    $0x3f,%rax
  401903:	48 29 c2             	sub    %rax,%rdx
  401906:	48 8d 04 92          	lea    (%rdx,%rdx,4),%rax
  40190a:	48 8d 14 80          	lea    (%rax,%rax,4),%rdx
  40190e:	48 8d 04 95 00 00 00 	lea    0x0(,%rdx,4),%rax
  401915:	00 
  401916:	48 29 c1             	sub    %rax,%rcx
  401919:	4c 8d 24 0c          	lea    (%rsp,%rcx,1),%r12
  40191d:	41 89 e8             	mov    %ebp,%r8d
  401920:	b9 c0 32 40 00       	mov    $0x4032c0,%ecx
  401925:	48 c7 c2 ff ff ff ff 	mov    $0xffffffffffffffff,%rdx
  40192c:	be 01 00 00 00       	mov    $0x1,%esi
  401931:	4c 89 e7             	mov    %r12,%rdi
  401934:	b8 00 00 00 00       	mov    $0x0,%eax
  401939:	e8 42 f5 ff ff       	callq  400e80 <__sprintf_chk@plt>
  40193e:	ba 09 00 00 00       	mov    $0x9,%edx
  401943:	4c 89 e6             	mov    %r12,%rsi
  401946:	48 89 df             	mov    %rbx,%rdi
  401949:	e8 62 f3 ff ff       	callq  400cb0 <strncmp@plt>
  40194e:	85 c0                	test   %eax,%eax
  401950:	0f 94 c0             	sete   %al
  401953:	48 8b 5c 24 78       	mov    0x78(%rsp),%rbx
  401958:	64 48 33 1c 25 28 00 	xor    %fs:0x28,%rbx
  40195f:	00 00 
  401961:	74 05                	je     401968 <hexmatch+0xa5>
  401963:	e8 88 f3 ff ff       	callq  400cf0 <__stack_chk_fail@plt>
  401968:	0f b6 c0             	movzbl %al,%eax
  40196b:	48 83 ec 80          	sub    $0xffffffffffffff80,%rsp
  40196f:	5b                   	pop    %rbx
  401970:	5d                   	pop    %rbp
  401971:	41 5c                	pop    %r12
  401973:	c3                   	retq   

0000000000401974 <touch3>:
  401974:	53                   	push   %rbx
  401975:	48 89 fb             	mov    %rdi,%rbx
  401978:	c7 05 9a 3b 20 00 03 	movl   $0x3,0x203b9a(%rip)        # 60551c <vlevel>
  40197f:	00 00 00 
  401982:	48 89 fe             	mov    %rdi,%rsi
  401985:	8b 3d 99 3b 20 00    	mov    0x203b99(%rip),%edi        # 605524 <cookie>
  40198b:	e8 33 ff ff ff       	callq  4018c3 <hexmatch>
  401990:	85 c0                	test   %eax,%eax
  401992:	74 23                	je     4019b7 <touch3+0x43>
  401994:	48 89 da             	mov    %rbx,%rdx
  401997:	be 18 33 40 00       	mov    $0x403318,%esi
  40199c:	bf 01 00 00 00       	mov    $0x1,%edi
  4019a1:	b8 00 00 00 00       	mov    $0x0,%eax
  4019a6:	e8 55 f4 ff ff       	callq  400e00 <__printf_chk@plt>
  4019ab:	bf 03 00 00 00       	mov    $0x3,%edi
  4019b0:	e8 5b 04 00 00       	callq  401e10 <validate>
  4019b5:	eb 21                	jmp    4019d8 <touch3+0x64>
  4019b7:	48 89 da             	mov    %rbx,%rdx
  4019ba:	be 40 33 40 00       	mov    $0x403340,%esi
  4019bf:	bf 01 00 00 00       	mov    $0x1,%edi
  4019c4:	b8 00 00 00 00       	mov    $0x0,%eax
  4019c9:	e8 32 f4 ff ff       	callq  400e00 <__printf_chk@plt>
  4019ce:	bf 03 00 00 00       	mov    $0x3,%edi
  4019d3:	e8 fa 04 00 00       	callq  401ed2 <fail>
  4019d8:	bf 00 00 00 00       	mov    $0x0,%edi
  4019dd:	e8 6e f4 ff ff       	callq  400e50 <exit@plt>

00000000004019e2 <test>:
  4019e2:	48 83 ec 08          	sub    $0x8,%rsp
  4019e6:	b8 00 00 00 00       	mov    $0x0,%eax
  4019eb:	e8 31 fe ff ff       	callq  401821 <getbuf>
  4019f0:	89 c2                	mov    %eax,%edx
  4019f2:	be 68 33 40 00       	mov    $0x403368,%esi
  4019f7:	bf 01 00 00 00       	mov    $0x1,%edi
  4019fc:	b8 00 00 00 00       	mov    $0x0,%eax
  401a01:	e8 fa f3 ff ff       	callq  400e00 <__printf_chk@plt>
  401a06:	48 83 c4 08          	add    $0x8,%rsp
  401a0a:	c3                   	retq   

0000000000401a0b <start_farm>:
  401a0b:	b8 01 00 00 00       	mov    $0x1,%eax
  401a10:	c3                   	retq   

0000000000401a11 <setval_496>:
  401a11:	c7 07 48 89 c7 94    	movl   $0x94c78948,(%rdi)
  401a17:	c3                   	retq   

0000000000401a18 <getval_277>:
  401a18:	b8 48 89 c7 c3       	mov    $0xc3c78948,%eax
  401a1d:	c3                   	retq   

0000000000401a1e <addval_497>:
  401a1e:	8d 87 48 89 c7 c3    	lea    -0x3c3876b8(%rdi),%eax
  401a24:	c3                   	retq   

0000000000401a25 <setval_467>:
  401a25:	c7 07 d2 d5 4f 58    	movl   $0x584fd5d2,(%rdi)
  401a2b:	c3                   	retq   

0000000000401a2c <addval_206>:
  401a2c:	8d 87 58 90 91 c3    	lea    -0x3c6e6fa8(%rdi),%eax
  401a32:	c3                   	retq   

0000000000401a33 <getval_465>:
  401a33:	b8 4b 29 58 90       	mov    $0x9058294b,%eax
  401a38:	c3                   	retq   

0000000000401a39 <addval_214>:
  401a39:	8d 87 d8 90 90 c3    	lea    -0x3c6f6f28(%rdi),%eax
  401a3f:	c3                   	retq   

0000000000401a40 <addval_375>:
  401a40:	8d 87 48 89 c7 94    	lea    -0x6b3876b8(%rdi),%eax
  401a46:	c3                   	retq   

0000000000401a47 <mid_farm>:
  401a47:	b8 01 00 00 00       	mov    $0x1,%eax
  401a4c:	c3                   	retq   

0000000000401a4d <add_xy>:
  401a4d:	48 8d 04 37          	lea    (%rdi,%rsi,1),%rax
  401a51:	c3                   	retq   

0000000000401a52 <getval_195>:
  401a52:	b8 48 89 e0 c7       	mov    $0xc7e08948,%eax
  401a57:	c3                   	retq   

0000000000401a58 <setval_499>:
  401a58:	c7 07 89 c1 90 c3    	movl   $0xc390c189,(%rdi)
  401a5e:	c3                   	retq   

0000000000401a5f <setval_318>:
  401a5f:	c7 07 a9 d6 20 c0    	movl   $0xc020d6a9,(%rdi)
  401a65:	c3                   	retq   

0000000000401a66 <setval_262>:
  401a66:	c7 07 16 8b c1 90    	movl   $0x90c18b16,(%rdi)
  401a6c:	c3                   	retq   

0000000000401a6d <addval_489>:
  401a6d:	8d 87 88 ca 90 90    	lea    -0x6f6f3578(%rdi),%eax
  401a73:	c3                   	retq   

0000000000401a74 <getval_193>:
  401a74:	b8 89 d6 08 c0       	mov    $0xc008d689,%eax
  401a79:	c3                   	retq   

0000000000401a7a <getval_310>:
  401a7a:	b8 49 89 e0 c3       	mov    $0xc3e08949,%eax
  401a7f:	c3                   	retq   

0000000000401a80 <addval_359>:
  401a80:	8d 87 8b ca c3 e2    	lea    -0x1d3c3575(%rdi),%eax
  401a86:	c3                   	retq   

0000000000401a87 <getval_446>:
  401a87:	b8 37 09 d6 c3       	mov    $0xc3d60937,%eax
  401a8c:	c3                   	retq   

0000000000401a8d <getval_151>:
  401a8d:	b8 48 89 e0 c7       	mov    $0xc7e08948,%eax
  401a92:	c3                   	retq   

0000000000401a93 <setval_252>:
  401a93:	c7 07 88 d6 90 90    	movl   $0x9090d688,(%rdi)
  401a99:	c3                   	retq   

0000000000401a9a <addval_377>:
  401a9a:	8d 87 a9 d6 20 c9    	lea    -0x36df2957(%rdi),%eax
  401aa0:	c3                   	retq   

0000000000401aa1 <setval_495>:
  401aa1:	c7 07 b8 b8 8b c1    	movl   $0xc18bb8b8,(%rdi)
  401aa7:	c3                   	retq   

0000000000401aa8 <getval_121>:
  401aa8:	b8 48 89 e0 91       	mov    $0x91e08948,%eax
  401aad:	c3                   	retq   

0000000000401aae <setval_157>:
  401aae:	c7 07 89 c1 30 c9    	movl   $0xc930c189,(%rdi)
  401ab4:	c3                   	retq   

0000000000401ab5 <addval_221>:
  401ab5:	8d 87 48 89 e0 94    	lea    -0x6b1f76b8(%rdi),%eax
  401abb:	c3                   	retq   

0000000000401abc <getval_220>:
  401abc:	b8 e2 89 c1 c2       	mov    $0xc2c189e2,%eax
  401ac1:	c3                   	retq   

0000000000401ac2 <addval_315>:
  401ac2:	8d 87 01 89 ca 94    	lea    -0x6b3576ff(%rdi),%eax
  401ac8:	c3                   	retq   

0000000000401ac9 <addval_218>:
  401ac9:	8d 87 89 ca 90 c3    	lea    -0x3c6f3577(%rdi),%eax
  401acf:	c3                   	retq   

0000000000401ad0 <addval_278>:
  401ad0:	8d 87 81 c1 20 c9    	lea    -0x36df3e7f(%rdi),%eax
  401ad6:	c3                   	retq   

0000000000401ad7 <addval_350>:
  401ad7:	8d 87 48 89 e0 90    	lea    -0x6f1f76b8(%rdi),%eax
  401add:	c3                   	retq   

0000000000401ade <setval_317>:
  401ade:	c7 07 48 89 e0 c3    	movl   $0xc3e08948,(%rdi)
  401ae4:	c3                   	retq   

0000000000401ae5 <setval_476>:
  401ae5:	c7 07 89 d6 84 d2    	movl   $0xd284d689,(%rdi)
  401aeb:	c3                   	retq   

0000000000401aec <addval_249>:
  401aec:	8d 87 89 c1 60 c0    	lea    -0x3f9f3e77(%rdi),%eax
  401af2:	c3                   	retq   

0000000000401af3 <getval_140>:
  401af3:	b8 c9 d6 08 c9       	mov    $0xc908d6c9,%eax
  401af8:	c3                   	retq   

0000000000401af9 <getval_480>:
  401af9:	b8 89 ca c1 30       	mov    $0x30c1ca89,%eax
  401afe:	c3                   	retq   

0000000000401aff <getval_389>:
  401aff:	b8 89 ca 08 db       	mov    $0xdb08ca89,%eax
  401b04:	c3                   	retq   

0000000000401b05 <getval_133>:
  401b05:	b8 b9 e3 88 d6       	mov    $0xd688e3b9,%eax
  401b0a:	c3                   	retq   

0000000000401b0b <getval_474>:
  401b0b:	b8 c4 89 ca 91       	mov    $0x91ca89c4,%eax
  401b10:	c3                   	retq   

0000000000401b11 <setval_333>:
  401b11:	c7 07 48 89 e0 91    	movl   $0x91e08948,(%rdi)
  401b17:	c3                   	retq   

0000000000401b18 <getval_248>:
  401b18:	b8 89 c1 38 db       	mov    $0xdb38c189,%eax
  401b1d:	c3                   	retq   

0000000000401b1e <addval_219>:
  401b1e:	8d 87 c9 ca c3 6b    	lea    0x6bc3cac9(%rdi),%eax
  401b24:	c3                   	retq   

0000000000401b25 <end_farm>:
  401b25:	b8 01 00 00 00       	mov    $0x1,%eax
  401b2a:	c3                   	retq   

0000000000401b2b <save_char>:
  401b2b:	8b 05 13 46 20 00    	mov    0x204613(%rip),%eax        # 606144 <gets_cnt>
  401b31:	3d ff 03 00 00       	cmp    $0x3ff,%eax
  401b36:	7f 49                	jg     401b81 <save_char+0x56>
  401b38:	8d 14 40             	lea    (%rax,%rax,2),%edx
  401b3b:	89 f9                	mov    %edi,%ecx
  401b3d:	c0 e9 04             	shr    $0x4,%cl
  401b40:	83 e1 0f             	and    $0xf,%ecx
  401b43:	0f b6 b1 90 36 40 00 	movzbl 0x403690(%rcx),%esi
  401b4a:	48 63 ca             	movslq %edx,%rcx
  401b4d:	40 88 b1 40 55 60 00 	mov    %sil,0x605540(%rcx)
  401b54:	8d 4a 01             	lea    0x1(%rdx),%ecx
  401b57:	83 e7 0f             	and    $0xf,%edi
  401b5a:	0f b6 b7 90 36 40 00 	movzbl 0x403690(%rdi),%esi
  401b61:	48 63 c9             	movslq %ecx,%rcx
  401b64:	40 88 b1 40 55 60 00 	mov    %sil,0x605540(%rcx)
  401b6b:	83 c2 02             	add    $0x2,%edx
  401b6e:	48 63 d2             	movslq %edx,%rdx
  401b71:	c6 82 40 55 60 00 20 	movb   $0x20,0x605540(%rdx)
  401b78:	83 c0 01             	add    $0x1,%eax
  401b7b:	89 05 c3 45 20 00    	mov    %eax,0x2045c3(%rip)        # 606144 <gets_cnt>
  401b81:	f3 c3                	repz retq 

0000000000401b83 <save_term>:
  401b83:	8b 05 bb 45 20 00    	mov    0x2045bb(%rip),%eax        # 606144 <gets_cnt>
  401b89:	8d 04 40             	lea    (%rax,%rax,2),%eax
  401b8c:	48 98                	cltq   
  401b8e:	c6 80 40 55 60 00 00 	movb   $0x0,0x605540(%rax)
  401b95:	c3                   	retq   

0000000000401b96 <check_fail>:
  401b96:	48 83 ec 08          	sub    $0x8,%rsp
  401b9a:	0f be 15 a7 45 20 00 	movsbl 0x2045a7(%rip),%edx        # 606148 <target_prefix>
  401ba1:	41 b8 40 55 60 00    	mov    $0x605540,%r8d
  401ba7:	8b 0d 6b 39 20 00    	mov    0x20396b(%rip),%ecx        # 605518 <check_level>
  401bad:	be 8b 33 40 00       	mov    $0x40338b,%esi
  401bb2:	bf 01 00 00 00       	mov    $0x1,%edi
  401bb7:	b8 00 00 00 00       	mov    $0x0,%eax
  401bbc:	e8 3f f2 ff ff       	callq  400e00 <__printf_chk@plt>
  401bc1:	bf 01 00 00 00       	mov    $0x1,%edi
  401bc6:	e8 85 f2 ff ff       	callq  400e50 <exit@plt>

0000000000401bcb <Gets>:
  401bcb:	41 54                	push   %r12
  401bcd:	55                   	push   %rbp
  401bce:	53                   	push   %rbx
  401bcf:	49 89 fc             	mov    %rdi,%r12
  401bd2:	c7 05 68 45 20 00 00 	movl   $0x0,0x204568(%rip)        # 606144 <gets_cnt>
  401bd9:	00 00 00 
  401bdc:	48 89 fb             	mov    %rdi,%rbx
  401bdf:	eb 11                	jmp    401bf2 <Gets+0x27>
  401be1:	48 8d 6b 01          	lea    0x1(%rbx),%rbp
  401be5:	88 03                	mov    %al,(%rbx)
  401be7:	0f b6 f8             	movzbl %al,%edi
  401bea:	e8 3c ff ff ff       	callq  401b2b <save_char>
  401bef:	48 89 eb             	mov    %rbp,%rbx
  401bf2:	48 8b 3d 17 39 20 00 	mov    0x203917(%rip),%rdi        # 605510 <infile>
  401bf9:	e8 d2 f1 ff ff       	callq  400dd0 <_IO_getc@plt>
  401bfe:	83 f8 ff             	cmp    $0xffffffff,%eax
  401c01:	74 05                	je     401c08 <Gets+0x3d>
  401c03:	83 f8 0a             	cmp    $0xa,%eax
  401c06:	75 d9                	jne    401be1 <Gets+0x16>
  401c08:	c6 03 00             	movb   $0x0,(%rbx)
  401c0b:	b8 00 00 00 00       	mov    $0x0,%eax
  401c10:	e8 6e ff ff ff       	callq  401b83 <save_term>
  401c15:	4c 89 e0             	mov    %r12,%rax
  401c18:	5b                   	pop    %rbx
  401c19:	5d                   	pop    %rbp
  401c1a:	41 5c                	pop    %r12
  401c1c:	c3                   	retq   

0000000000401c1d <notify_server>:
  401c1d:	53                   	push   %rbx
  401c1e:	48 81 ec 10 40 00 00 	sub    $0x4010,%rsp
  401c25:	64 48 8b 04 25 28 00 	mov    %fs:0x28,%rax
  401c2c:	00 00 
  401c2e:	48 89 84 24 08 40 00 	mov    %rax,0x4008(%rsp)
  401c35:	00 
  401c36:	31 c0                	xor    %eax,%eax
  401c38:	83 3d e9 38 20 00 00 	cmpl   $0x0,0x2038e9(%rip)        # 605528 <is_checker>
  401c3f:	0f 85 aa 01 00 00    	jne    401def <notify_server+0x1d2>
  401c45:	89 fb                	mov    %edi,%ebx
  401c47:	8b 05 f7 44 20 00    	mov    0x2044f7(%rip),%eax        # 606144 <gets_cnt>
  401c4d:	83 c0 64             	add    $0x64,%eax
  401c50:	3d 00 20 00 00       	cmp    $0x2000,%eax
  401c55:	7e 1e                	jle    401c75 <notify_server+0x58>
  401c57:	be c0 34 40 00       	mov    $0x4034c0,%esi
  401c5c:	bf 01 00 00 00       	mov    $0x1,%edi
  401c61:	b8 00 00 00 00       	mov    $0x0,%eax
  401c66:	e8 95 f1 ff ff       	callq  400e00 <__printf_chk@plt>
  401c6b:	bf 01 00 00 00       	mov    $0x1,%edi
  401c70:	e8 db f1 ff ff       	callq  400e50 <exit@plt>
  401c75:	0f be 05 cc 44 20 00 	movsbl 0x2044cc(%rip),%eax        # 606148 <target_prefix>
  401c7c:	83 3d 25 38 20 00 00 	cmpl   $0x0,0x203825(%rip)        # 6054a8 <notify>
  401c83:	74 08                	je     401c8d <notify_server+0x70>
  401c85:	8b 15 95 38 20 00    	mov    0x203895(%rip),%edx        # 605520 <authkey>
  401c8b:	eb 05                	jmp    401c92 <notify_server+0x75>
  401c8d:	ba ff ff ff ff       	mov    $0xffffffff,%edx
  401c92:	85 db                	test   %ebx,%ebx
  401c94:	74 08                	je     401c9e <notify_server+0x81>
  401c96:	41 b9 a1 33 40 00    	mov    $0x4033a1,%r9d
  401c9c:	eb 06                	jmp    401ca4 <notify_server+0x87>
  401c9e:	41 b9 a6 33 40 00    	mov    $0x4033a6,%r9d
  401ca4:	68 40 55 60 00       	pushq  $0x605540
  401ca9:	56                   	push   %rsi
  401caa:	50                   	push   %rax
  401cab:	52                   	push   %rdx
  401cac:	44 8b 05 b5 34 20 00 	mov    0x2034b5(%rip),%r8d        # 605168 <target_id>
  401cb3:	b9 ab 33 40 00       	mov    $0x4033ab,%ecx
  401cb8:	ba 00 20 00 00       	mov    $0x2000,%edx
  401cbd:	be 01 00 00 00       	mov    $0x1,%esi
  401cc2:	48 8d 7c 24 20       	lea    0x20(%rsp),%rdi
  401cc7:	b8 00 00 00 00       	mov    $0x0,%eax
  401ccc:	e8 af f1 ff ff       	callq  400e80 <__sprintf_chk@plt>
  401cd1:	48 83 c4 20          	add    $0x20,%rsp
  401cd5:	83 3d cc 37 20 00 00 	cmpl   $0x0,0x2037cc(%rip)        # 6054a8 <notify>
  401cdc:	0f 84 81 00 00 00    	je     401d63 <notify_server+0x146>
  401ce2:	85 db                	test   %ebx,%ebx
  401ce4:	74 6e                	je     401d54 <notify_server+0x137>
  401ce6:	4c 8d 8c 24 00 20 00 	lea    0x2000(%rsp),%r9
  401ced:	00 
  401cee:	41 b8 00 00 00 00    	mov    $0x0,%r8d
  401cf4:	48 89 e1             	mov    %rsp,%rcx
  401cf7:	48 8b 15 72 34 20 00 	mov    0x203472(%rip),%rdx        # 605170 <lab>
  401cfe:	48 8b 35 73 34 20 00 	mov    0x203473(%rip),%rsi        # 605178 <course>
  401d05:	48 8b 3d 54 34 20 00 	mov    0x203454(%rip),%rdi        # 605160 <user_id>
  401d0c:	e8 ef 10 00 00       	callq  402e00 <driver_post>
  401d11:	85 c0                	test   %eax,%eax
  401d13:	79 26                	jns    401d3b <notify_server+0x11e>
  401d15:	48 8d 94 24 00 20 00 	lea    0x2000(%rsp),%rdx
  401d1c:	00 
  401d1d:	be c7 33 40 00       	mov    $0x4033c7,%esi
  401d22:	bf 01 00 00 00       	mov    $0x1,%edi
  401d27:	b8 00 00 00 00       	mov    $0x0,%eax
  401d2c:	e8 cf f0 ff ff       	callq  400e00 <__printf_chk@plt>
  401d31:	bf 01 00 00 00       	mov    $0x1,%edi
  401d36:	e8 15 f1 ff ff       	callq  400e50 <exit@plt>
  401d3b:	bf f0 34 40 00       	mov    $0x4034f0,%edi
  401d40:	e8 8b ef ff ff       	callq  400cd0 <puts@plt>
  401d45:	bf d3 33 40 00       	mov    $0x4033d3,%edi
  401d4a:	e8 81 ef ff ff       	callq  400cd0 <puts@plt>
  401d4f:	e9 9b 00 00 00       	jmpq   401def <notify_server+0x1d2>
  401d54:	bf dd 33 40 00       	mov    $0x4033dd,%edi
  401d59:	e8 72 ef ff ff       	callq  400cd0 <puts@plt>
  401d5e:	e9 8c 00 00 00       	jmpq   401def <notify_server+0x1d2>
  401d63:	85 db                	test   %ebx,%ebx
  401d65:	74 07                	je     401d6e <notify_server+0x151>
  401d67:	ba a1 33 40 00       	mov    $0x4033a1,%edx
  401d6c:	eb 05                	jmp    401d73 <notify_server+0x156>
  401d6e:	ba a6 33 40 00       	mov    $0x4033a6,%edx
  401d73:	be 28 35 40 00       	mov    $0x403528,%esi
  401d78:	bf 01 00 00 00       	mov    $0x1,%edi
  401d7d:	b8 00 00 00 00       	mov    $0x0,%eax
  401d82:	e8 79 f0 ff ff       	callq  400e00 <__printf_chk@plt>
  401d87:	48 8b 15 d2 33 20 00 	mov    0x2033d2(%rip),%rdx        # 605160 <user_id>
  401d8e:	be e4 33 40 00       	mov    $0x4033e4,%esi
  401d93:	bf 01 00 00 00       	mov    $0x1,%edi
  401d98:	b8 00 00 00 00       	mov    $0x0,%eax
  401d9d:	e8 5e f0 ff ff       	callq  400e00 <__printf_chk@plt>
  401da2:	48 8b 15 cf 33 20 00 	mov    0x2033cf(%rip),%rdx        # 605178 <course>
  401da9:	be f1 33 40 00       	mov    $0x4033f1,%esi
  401dae:	bf 01 00 00 00       	mov    $0x1,%edi
  401db3:	b8 00 00 00 00       	mov    $0x0,%eax
  401db8:	e8 43 f0 ff ff       	callq  400e00 <__printf_chk@plt>
  401dbd:	48 8b 15 ac 33 20 00 	mov    0x2033ac(%rip),%rdx        # 605170 <lab>
  401dc4:	be fd 33 40 00       	mov    $0x4033fd,%esi
  401dc9:	bf 01 00 00 00       	mov    $0x1,%edi
  401dce:	b8 00 00 00 00       	mov    $0x0,%eax
  401dd3:	e8 28 f0 ff ff       	callq  400e00 <__printf_chk@plt>
  401dd8:	48 89 e2             	mov    %rsp,%rdx
  401ddb:	be 06 34 40 00       	mov    $0x403406,%esi
  401de0:	bf 01 00 00 00       	mov    $0x1,%edi
  401de5:	b8 00 00 00 00       	mov    $0x0,%eax
  401dea:	e8 11 f0 ff ff       	callq  400e00 <__printf_chk@plt>
  401def:	48 8b 84 24 08 40 00 	mov    0x4008(%rsp),%rax
  401df6:	00 
  401df7:	64 48 33 04 25 28 00 	xor    %fs:0x28,%rax
  401dfe:	00 00 
  401e00:	74 05                	je     401e07 <notify_server+0x1ea>
  401e02:	e8 e9 ee ff ff       	callq  400cf0 <__stack_chk_fail@plt>
  401e07:	48 81 c4 10 40 00 00 	add    $0x4010,%rsp
  401e0e:	5b                   	pop    %rbx
  401e0f:	c3                   	retq   

0000000000401e10 <validate>:
  401e10:	53                   	push   %rbx
  401e11:	89 fb                	mov    %edi,%ebx
  401e13:	83 3d 0e 37 20 00 00 	cmpl   $0x0,0x20370e(%rip)        # 605528 <is_checker>
  401e1a:	74 6b                	je     401e87 <validate+0x77>
  401e1c:	39 3d fa 36 20 00    	cmp    %edi,0x2036fa(%rip)        # 60551c <vlevel>
  401e22:	74 14                	je     401e38 <validate+0x28>
  401e24:	bf 12 34 40 00       	mov    $0x403412,%edi
  401e29:	e8 a2 ee ff ff       	callq  400cd0 <puts@plt>
  401e2e:	b8 00 00 00 00       	mov    $0x0,%eax
  401e33:	e8 5e fd ff ff       	callq  401b96 <check_fail>
  401e38:	8b 15 da 36 20 00    	mov    0x2036da(%rip),%edx        # 605518 <check_level>
  401e3e:	39 d7                	cmp    %edx,%edi
  401e40:	74 20                	je     401e62 <validate+0x52>
  401e42:	89 f9                	mov    %edi,%ecx
  401e44:	be 50 35 40 00       	mov    $0x403550,%esi
  401e49:	bf 01 00 00 00       	mov    $0x1,%edi
  401e4e:	b8 00 00 00 00       	mov    $0x0,%eax
  401e53:	e8 a8 ef ff ff       	callq  400e00 <__printf_chk@plt>
  401e58:	b8 00 00 00 00       	mov    $0x0,%eax
  401e5d:	e8 34 fd ff ff       	callq  401b96 <check_fail>
  401e62:	0f be 15 df 42 20 00 	movsbl 0x2042df(%rip),%edx        # 606148 <target_prefix>
  401e69:	41 b8 40 55 60 00    	mov    $0x605540,%r8d
  401e6f:	89 f9                	mov    %edi,%ecx
  401e71:	be 30 34 40 00       	mov    $0x403430,%esi
  401e76:	bf 01 00 00 00       	mov    $0x1,%edi
  401e7b:	b8 00 00 00 00       	mov    $0x0,%eax
  401e80:	e8 7b ef ff ff       	callq  400e00 <__printf_chk@plt>
  401e85:	eb 49                	jmp    401ed0 <validate+0xc0>
  401e87:	3b 3d 8f 36 20 00    	cmp    0x20368f(%rip),%edi        # 60551c <vlevel>
  401e8d:	74 18                	je     401ea7 <validate+0x97>
  401e8f:	bf 12 34 40 00       	mov    $0x403412,%edi
  401e94:	e8 37 ee ff ff       	callq  400cd0 <puts@plt>
  401e99:	89 de                	mov    %ebx,%esi
  401e9b:	bf 00 00 00 00       	mov    $0x0,%edi
  401ea0:	e8 78 fd ff ff       	callq  401c1d <notify_server>
  401ea5:	eb 29                	jmp    401ed0 <validate+0xc0>
  401ea7:	0f be 0d 9a 42 20 00 	movsbl 0x20429a(%rip),%ecx        # 606148 <target_prefix>
  401eae:	89 fa                	mov    %edi,%edx
  401eb0:	be 78 35 40 00       	mov    $0x403578,%esi
  401eb5:	bf 01 00 00 00       	mov    $0x1,%edi
  401eba:	b8 00 00 00 00       	mov    $0x0,%eax
  401ebf:	e8 3c ef ff ff       	callq  400e00 <__printf_chk@plt>
  401ec4:	89 de                	mov    %ebx,%esi
  401ec6:	bf 01 00 00 00       	mov    $0x1,%edi
  401ecb:	e8 4d fd ff ff       	callq  401c1d <notify_server>
  401ed0:	5b                   	pop    %rbx
  401ed1:	c3                   	retq   

0000000000401ed2 <fail>:
  401ed2:	48 83 ec 08          	sub    $0x8,%rsp
  401ed6:	83 3d 4b 36 20 00 00 	cmpl   $0x0,0x20364b(%rip)        # 605528 <is_checker>
  401edd:	74 0a                	je     401ee9 <fail+0x17>
  401edf:	b8 00 00 00 00       	mov    $0x0,%eax
  401ee4:	e8 ad fc ff ff       	callq  401b96 <check_fail>
  401ee9:	89 fe                	mov    %edi,%esi
  401eeb:	bf 00 00 00 00       	mov    $0x0,%edi
  401ef0:	e8 28 fd ff ff       	callq  401c1d <notify_server>
  401ef5:	48 83 c4 08          	add    $0x8,%rsp
  401ef9:	c3                   	retq   

0000000000401efa <bushandler>:
  401efa:	48 83 ec 08          	sub    $0x8,%rsp
  401efe:	83 3d 23 36 20 00 00 	cmpl   $0x0,0x203623(%rip)        # 605528 <is_checker>
  401f05:	74 14                	je     401f1b <bushandler+0x21>
  401f07:	bf 45 34 40 00       	mov    $0x403445,%edi
  401f0c:	e8 bf ed ff ff       	callq  400cd0 <puts@plt>
  401f11:	b8 00 00 00 00       	mov    $0x0,%eax
  401f16:	e8 7b fc ff ff       	callq  401b96 <check_fail>
  401f1b:	bf b0 35 40 00       	mov    $0x4035b0,%edi
  401f20:	e8 ab ed ff ff       	callq  400cd0 <puts@plt>
  401f25:	bf 4f 34 40 00       	mov    $0x40344f,%edi
  401f2a:	e8 a1 ed ff ff       	callq  400cd0 <puts@plt>
  401f2f:	be 00 00 00 00       	mov    $0x0,%esi
  401f34:	bf 00 00 00 00       	mov    $0x0,%edi
  401f39:	e8 df fc ff ff       	callq  401c1d <notify_server>
  401f3e:	bf 01 00 00 00       	mov    $0x1,%edi
  401f43:	e8 08 ef ff ff       	callq  400e50 <exit@plt>

0000000000401f48 <seghandler>:
  401f48:	48 83 ec 08          	sub    $0x8,%rsp
  401f4c:	83 3d d5 35 20 00 00 	cmpl   $0x0,0x2035d5(%rip)        # 605528 <is_checker>
  401f53:	74 14                	je     401f69 <seghandler+0x21>
  401f55:	bf 65 34 40 00       	mov    $0x403465,%edi
  401f5a:	e8 71 ed ff ff       	callq  400cd0 <puts@plt>
  401f5f:	b8 00 00 00 00       	mov    $0x0,%eax
  401f64:	e8 2d fc ff ff       	callq  401b96 <check_fail>
  401f69:	bf d0 35 40 00       	mov    $0x4035d0,%edi
  401f6e:	e8 5d ed ff ff       	callq  400cd0 <puts@plt>
  401f73:	bf 4f 34 40 00       	mov    $0x40344f,%edi
  401f78:	e8 53 ed ff ff       	callq  400cd0 <puts@plt>
  401f7d:	be 00 00 00 00       	mov    $0x0,%esi
  401f82:	bf 00 00 00 00       	mov    $0x0,%edi
  401f87:	e8 91 fc ff ff       	callq  401c1d <notify_server>
  401f8c:	bf 01 00 00 00       	mov    $0x1,%edi
  401f91:	e8 ba ee ff ff       	callq  400e50 <exit@plt>

0000000000401f96 <illegalhandler>:
  401f96:	48 83 ec 08          	sub    $0x8,%rsp
  401f9a:	83 3d 87 35 20 00 00 	cmpl   $0x0,0x203587(%rip)        # 605528 <is_checker>
  401fa1:	74 14                	je     401fb7 <illegalhandler+0x21>
  401fa3:	bf 78 34 40 00       	mov    $0x403478,%edi
  401fa8:	e8 23 ed ff ff       	callq  400cd0 <puts@plt>
  401fad:	b8 00 00 00 00       	mov    $0x0,%eax
  401fb2:	e8 df fb ff ff       	callq  401b96 <check_fail>
  401fb7:	bf f8 35 40 00       	mov    $0x4035f8,%edi
  401fbc:	e8 0f ed ff ff       	callq  400cd0 <puts@plt>
  401fc1:	bf 4f 34 40 00       	mov    $0x40344f,%edi
  401fc6:	e8 05 ed ff ff       	callq  400cd0 <puts@plt>
  401fcb:	be 00 00 00 00       	mov    $0x0,%esi
  401fd0:	bf 00 00 00 00       	mov    $0x0,%edi
  401fd5:	e8 43 fc ff ff       	callq  401c1d <notify_server>
  401fda:	bf 01 00 00 00       	mov    $0x1,%edi
  401fdf:	e8 6c ee ff ff       	callq  400e50 <exit@plt>

0000000000401fe4 <sigalrmhandler>:
  401fe4:	48 83 ec 08          	sub    $0x8,%rsp
  401fe8:	83 3d 39 35 20 00 00 	cmpl   $0x0,0x203539(%rip)        # 605528 <is_checker>
  401fef:	74 14                	je     402005 <sigalrmhandler+0x21>
  401ff1:	bf 8c 34 40 00       	mov    $0x40348c,%edi
  401ff6:	e8 d5 ec ff ff       	callq  400cd0 <puts@plt>
  401ffb:	b8 00 00 00 00       	mov    $0x0,%eax
  402000:	e8 91 fb ff ff       	callq  401b96 <check_fail>
  402005:	ba 05 00 00 00       	mov    $0x5,%edx
  40200a:	be 28 36 40 00       	mov    $0x403628,%esi
  40200f:	bf 01 00 00 00       	mov    $0x1,%edi
  402014:	b8 00 00 00 00       	mov    $0x0,%eax
  402019:	e8 e2 ed ff ff       	callq  400e00 <__printf_chk@plt>
  40201e:	be 00 00 00 00       	mov    $0x0,%esi
  402023:	bf 00 00 00 00       	mov    $0x0,%edi
  402028:	e8 f0 fb ff ff       	callq  401c1d <notify_server>
  40202d:	bf 01 00 00 00       	mov    $0x1,%edi
  402032:	e8 19 ee ff ff       	callq  400e50 <exit@plt>

0000000000402037 <launch>:
  402037:	55                   	push   %rbp
  402038:	48 89 e5             	mov    %rsp,%rbp
  40203b:	48 83 ec 10          	sub    $0x10,%rsp
  40203f:	48 89 fa             	mov    %rdi,%rdx
  402042:	64 48 8b 04 25 28 00 	mov    %fs:0x28,%rax
  402049:	00 00 
  40204b:	48 89 45 f8          	mov    %rax,-0x8(%rbp)
  40204f:	31 c0                	xor    %eax,%eax
  402051:	48 8d 47 1e          	lea    0x1e(%rdi),%rax
  402055:	48 83 e0 f0          	and    $0xfffffffffffffff0,%rax
  402059:	48 29 c4             	sub    %rax,%rsp
  40205c:	48 8d 7c 24 0f       	lea    0xf(%rsp),%rdi
  402061:	48 83 e7 f0          	and    $0xfffffffffffffff0,%rdi
  402065:	be f4 00 00 00       	mov    $0xf4,%esi
  40206a:	e8 a1 ec ff ff       	callq  400d10 <memset@plt>
  40206f:	48 8b 05 4a 34 20 00 	mov    0x20344a(%rip),%rax        # 6054c0 <stdin@@GLIBC_2.2.5>
  402076:	48 39 05 93 34 20 00 	cmp    %rax,0x203493(%rip)        # 605510 <infile>
  40207d:	75 14                	jne    402093 <launch+0x5c>
  40207f:	be 94 34 40 00       	mov    $0x403494,%esi
  402084:	bf 01 00 00 00       	mov    $0x1,%edi
  402089:	b8 00 00 00 00       	mov    $0x0,%eax
  40208e:	e8 6d ed ff ff       	callq  400e00 <__printf_chk@plt>
  402093:	c7 05 7f 34 20 00 00 	movl   $0x0,0x20347f(%rip)        # 60551c <vlevel>
  40209a:	00 00 00 
  40209d:	b8 00 00 00 00       	mov    $0x0,%eax
  4020a2:	e8 3b f9 ff ff       	callq  4019e2 <test>
  4020a7:	83 3d 7a 34 20 00 00 	cmpl   $0x0,0x20347a(%rip)        # 605528 <is_checker>
  4020ae:	74 14                	je     4020c4 <launch+0x8d>
  4020b0:	bf a1 34 40 00       	mov    $0x4034a1,%edi
  4020b5:	e8 16 ec ff ff       	callq  400cd0 <puts@plt>
  4020ba:	b8 00 00 00 00       	mov    $0x0,%eax
  4020bf:	e8 d2 fa ff ff       	callq  401b96 <check_fail>
  4020c4:	bf ac 34 40 00       	mov    $0x4034ac,%edi
  4020c9:	e8 02 ec ff ff       	callq  400cd0 <puts@plt>
  4020ce:	48 8b 45 f8          	mov    -0x8(%rbp),%rax
  4020d2:	64 48 33 04 25 28 00 	xor    %fs:0x28,%rax
  4020d9:	00 00 
  4020db:	74 05                	je     4020e2 <launch+0xab>
  4020dd:	e8 0e ec ff ff       	callq  400cf0 <__stack_chk_fail@plt>
  4020e2:	c9                   	leaveq 
  4020e3:	c3                   	retq   

00000000004020e4 <stable_launch>:
  4020e4:	53                   	push   %rbx
  4020e5:	48 89 3d 1c 34 20 00 	mov    %rdi,0x20341c(%rip)        # 605508 <global_offset>
  4020ec:	41 b9 00 00 00 00    	mov    $0x0,%r9d
  4020f2:	41 b8 00 00 00 00    	mov    $0x0,%r8d
  4020f8:	b9 32 01 00 00       	mov    $0x132,%ecx
  4020fd:	ba 07 00 00 00       	mov    $0x7,%edx
  402102:	be 00 00 10 00       	mov    $0x100000,%esi
  402107:	bf 00 60 58 55       	mov    $0x55586000,%edi
  40210c:	e8 ef eb ff ff       	callq  400d00 <mmap@plt>
  402111:	48 89 c3             	mov    %rax,%rbx
  402114:	48 3d 00 60 58 55    	cmp    $0x55586000,%rax
  40211a:	74 37                	je     402153 <stable_launch+0x6f>
  40211c:	be 00 00 10 00       	mov    $0x100000,%esi
  402121:	48 89 c7             	mov    %rax,%rdi
  402124:	e8 c7 ec ff ff       	callq  400df0 <munmap@plt>
  402129:	b9 00 60 58 55       	mov    $0x55586000,%ecx
  40212e:	ba 60 36 40 00       	mov    $0x403660,%edx
  402133:	be 01 00 00 00       	mov    $0x1,%esi
  402138:	48 8b 3d a1 33 20 00 	mov    0x2033a1(%rip),%rdi        # 6054e0 <stderr@@GLIBC_2.2.5>
  40213f:	b8 00 00 00 00       	mov    $0x0,%eax
  402144:	e8 27 ed ff ff       	callq  400e70 <__fprintf_chk@plt>
  402149:	bf 01 00 00 00       	mov    $0x1,%edi
  40214e:	e8 fd ec ff ff       	callq  400e50 <exit@plt>
  402153:	48 8d 90 f8 ff 0f 00 	lea    0xffff8(%rax),%rdx
  40215a:	48 89 15 ef 3f 20 00 	mov    %rdx,0x203fef(%rip)        # 606150 <stack_top>
  402161:	48 89 e0             	mov    %rsp,%rax
  402164:	48 89 d4             	mov    %rdx,%rsp
  402167:	48 89 c2             	mov    %rax,%rdx
  40216a:	48 89 15 8f 33 20 00 	mov    %rdx,0x20338f(%rip)        # 605500 <global_save_stack>
  402171:	48 8b 3d 90 33 20 00 	mov    0x203390(%rip),%rdi        # 605508 <global_offset>
  402178:	e8 ba fe ff ff       	callq  402037 <launch>
  40217d:	48 8b 05 7c 33 20 00 	mov    0x20337c(%rip),%rax        # 605500 <global_save_stack>
  402184:	48 89 c4             	mov    %rax,%rsp
  402187:	be 00 00 10 00       	mov    $0x100000,%esi
  40218c:	48 89 df             	mov    %rbx,%rdi
  40218f:	e8 5c ec ff ff       	callq  400df0 <munmap@plt>
  402194:	5b                   	pop    %rbx
  402195:	c3                   	retq   

0000000000402196 <rio_readinitb>:
  402196:	89 37                	mov    %esi,(%rdi)
  402198:	c7 47 04 00 00 00 00 	movl   $0x0,0x4(%rdi)
  40219f:	48 8d 47 10          	lea    0x10(%rdi),%rax
  4021a3:	48 89 47 08          	mov    %rax,0x8(%rdi)
  4021a7:	c3                   	retq   

00000000004021a8 <sigalrm_handler>:
  4021a8:	48 83 ec 08          	sub    $0x8,%rsp
  4021ac:	b9 00 00 00 00       	mov    $0x0,%ecx
  4021b1:	ba a0 36 40 00       	mov    $0x4036a0,%edx
  4021b6:	be 01 00 00 00       	mov    $0x1,%esi
  4021bb:	48 8b 3d 1e 33 20 00 	mov    0x20331e(%rip),%rdi        # 6054e0 <stderr@@GLIBC_2.2.5>
  4021c2:	b8 00 00 00 00       	mov    $0x0,%eax
  4021c7:	e8 a4 ec ff ff       	callq  400e70 <__fprintf_chk@plt>
  4021cc:	bf 01 00 00 00       	mov    $0x1,%edi
  4021d1:	e8 7a ec ff ff       	callq  400e50 <exit@plt>

00000000004021d6 <rio_writen>:
  4021d6:	41 55                	push   %r13
  4021d8:	41 54                	push   %r12
  4021da:	55                   	push   %rbp
  4021db:	53                   	push   %rbx
  4021dc:	48 83 ec 08          	sub    $0x8,%rsp
  4021e0:	41 89 fc             	mov    %edi,%r12d
  4021e3:	48 89 f5             	mov    %rsi,%rbp
  4021e6:	49 89 d5             	mov    %rdx,%r13
  4021e9:	48 89 d3             	mov    %rdx,%rbx
  4021ec:	eb 28                	jmp    402216 <rio_writen+0x40>
  4021ee:	48 89 da             	mov    %rbx,%rdx
  4021f1:	48 89 ee             	mov    %rbp,%rsi
  4021f4:	44 89 e7             	mov    %r12d,%edi
  4021f7:	e8 e4 ea ff ff       	callq  400ce0 <write@plt>
  4021fc:	48 85 c0             	test   %rax,%rax
  4021ff:	7f 0f                	jg     402210 <rio_writen+0x3a>
  402201:	e8 8a ea ff ff       	callq  400c90 <__errno_location@plt>
  402206:	83 38 04             	cmpl   $0x4,(%rax)
  402209:	75 15                	jne    402220 <rio_writen+0x4a>
  40220b:	b8 00 00 00 00       	mov    $0x0,%eax
  402210:	48 29 c3             	sub    %rax,%rbx
  402213:	48 01 c5             	add    %rax,%rbp
  402216:	48 85 db             	test   %rbx,%rbx
  402219:	75 d3                	jne    4021ee <rio_writen+0x18>
  40221b:	4c 89 e8             	mov    %r13,%rax
  40221e:	eb 07                	jmp    402227 <rio_writen+0x51>
  402220:	48 c7 c0 ff ff ff ff 	mov    $0xffffffffffffffff,%rax
  402227:	48 83 c4 08          	add    $0x8,%rsp
  40222b:	5b                   	pop    %rbx
  40222c:	5d                   	pop    %rbp
  40222d:	41 5c                	pop    %r12
  40222f:	41 5d                	pop    %r13
  402231:	c3                   	retq   

0000000000402232 <rio_read>:
  402232:	41 55                	push   %r13
  402234:	41 54                	push   %r12
  402236:	55                   	push   %rbp
  402237:	53                   	push   %rbx
  402238:	48 83 ec 08          	sub    $0x8,%rsp
  40223c:	48 89 fb             	mov    %rdi,%rbx
  40223f:	49 89 f5             	mov    %rsi,%r13
  402242:	49 89 d4             	mov    %rdx,%r12
  402245:	eb 2e                	jmp    402275 <rio_read+0x43>
  402247:	48 8d 6b 10          	lea    0x10(%rbx),%rbp
  40224b:	8b 3b                	mov    (%rbx),%edi
  40224d:	ba 00 20 00 00       	mov    $0x2000,%edx
  402252:	48 89 ee             	mov    %rbp,%rsi
  402255:	e8 e6 ea ff ff       	callq  400d40 <read@plt>
  40225a:	89 43 04             	mov    %eax,0x4(%rbx)
  40225d:	85 c0                	test   %eax,%eax
  40225f:	79 0c                	jns    40226d <rio_read+0x3b>
  402261:	e8 2a ea ff ff       	callq  400c90 <__errno_location@plt>
  402266:	83 38 04             	cmpl   $0x4,(%rax)
  402269:	74 0a                	je     402275 <rio_read+0x43>
  40226b:	eb 37                	jmp    4022a4 <rio_read+0x72>
  40226d:	85 c0                	test   %eax,%eax
  40226f:	74 3c                	je     4022ad <rio_read+0x7b>
  402271:	48 89 6b 08          	mov    %rbp,0x8(%rbx)
  402275:	8b 6b 04             	mov    0x4(%rbx),%ebp
  402278:	85 ed                	test   %ebp,%ebp
  40227a:	7e cb                	jle    402247 <rio_read+0x15>
  40227c:	89 e8                	mov    %ebp,%eax
  40227e:	49 39 c4             	cmp    %rax,%r12
  402281:	77 03                	ja     402286 <rio_read+0x54>
  402283:	44 89 e5             	mov    %r12d,%ebp
  402286:	4c 63 e5             	movslq %ebp,%r12
  402289:	48 8b 73 08          	mov    0x8(%rbx),%rsi
  40228d:	4c 89 e2             	mov    %r12,%rdx
  402290:	4c 89 ef             	mov    %r13,%rdi
  402293:	e8 08 eb ff ff       	callq  400da0 <memcpy@plt>
  402298:	4c 01 63 08          	add    %r12,0x8(%rbx)
  40229c:	29 6b 04             	sub    %ebp,0x4(%rbx)
  40229f:	4c 89 e0             	mov    %r12,%rax
  4022a2:	eb 0e                	jmp    4022b2 <rio_read+0x80>
  4022a4:	48 c7 c0 ff ff ff ff 	mov    $0xffffffffffffffff,%rax
  4022ab:	eb 05                	jmp    4022b2 <rio_read+0x80>
  4022ad:	b8 00 00 00 00       	mov    $0x0,%eax
  4022b2:	48 83 c4 08          	add    $0x8,%rsp
  4022b6:	5b                   	pop    %rbx
  4022b7:	5d                   	pop    %rbp
  4022b8:	41 5c                	pop    %r12
  4022ba:	41 5d                	pop    %r13
  4022bc:	c3                   	retq   

00000000004022bd <rio_readlineb>:
  4022bd:	41 55                	push   %r13
  4022bf:	41 54                	push   %r12
  4022c1:	55                   	push   %rbp
  4022c2:	53                   	push   %rbx
  4022c3:	48 83 ec 18          	sub    $0x18,%rsp
  4022c7:	49 89 fd             	mov    %rdi,%r13
  4022ca:	48 89 f5             	mov    %rsi,%rbp
  4022cd:	49 89 d4             	mov    %rdx,%r12
  4022d0:	64 48 8b 04 25 28 00 	mov    %fs:0x28,%rax
  4022d7:	00 00 
  4022d9:	48 89 44 24 08       	mov    %rax,0x8(%rsp)
  4022de:	31 c0                	xor    %eax,%eax
  4022e0:	bb 01 00 00 00       	mov    $0x1,%ebx
  4022e5:	eb 3f                	jmp    402326 <rio_readlineb+0x69>
  4022e7:	ba 01 00 00 00       	mov    $0x1,%edx
  4022ec:	48 8d 74 24 07       	lea    0x7(%rsp),%rsi
  4022f1:	4c 89 ef             	mov    %r13,%rdi
  4022f4:	e8 39 ff ff ff       	callq  402232 <rio_read>
  4022f9:	83 f8 01             	cmp    $0x1,%eax
  4022fc:	75 15                	jne    402313 <rio_readlineb+0x56>
  4022fe:	48 8d 45 01          	lea    0x1(%rbp),%rax
  402302:	0f b6 54 24 07       	movzbl 0x7(%rsp),%edx
  402307:	88 55 00             	mov    %dl,0x0(%rbp)
  40230a:	80 7c 24 07 0a       	cmpb   $0xa,0x7(%rsp)
  40230f:	75 0e                	jne    40231f <rio_readlineb+0x62>
  402311:	eb 1a                	jmp    40232d <rio_readlineb+0x70>
  402313:	85 c0                	test   %eax,%eax
  402315:	75 22                	jne    402339 <rio_readlineb+0x7c>
  402317:	48 83 fb 01          	cmp    $0x1,%rbx
  40231b:	75 13                	jne    402330 <rio_readlineb+0x73>
  40231d:	eb 23                	jmp    402342 <rio_readlineb+0x85>
  40231f:	48 83 c3 01          	add    $0x1,%rbx
  402323:	48 89 c5             	mov    %rax,%rbp
  402326:	4c 39 e3             	cmp    %r12,%rbx
  402329:	72 bc                	jb     4022e7 <rio_readlineb+0x2a>
  40232b:	eb 03                	jmp    402330 <rio_readlineb+0x73>
  40232d:	48 89 c5             	mov    %rax,%rbp
  402330:	c6 45 00 00          	movb   $0x0,0x0(%rbp)
  402334:	48 89 d8             	mov    %rbx,%rax
  402337:	eb 0e                	jmp    402347 <rio_readlineb+0x8a>
  402339:	48 c7 c0 ff ff ff ff 	mov    $0xffffffffffffffff,%rax
  402340:	eb 05                	jmp    402347 <rio_readlineb+0x8a>
  402342:	b8 00 00 00 00       	mov    $0x0,%eax
  402347:	48 8b 4c 24 08       	mov    0x8(%rsp),%rcx
  40234c:	64 48 33 0c 25 28 00 	xor    %fs:0x28,%rcx
  402353:	00 00 
  402355:	74 05                	je     40235c <rio_readlineb+0x9f>
  402357:	e8 94 e9 ff ff       	callq  400cf0 <__stack_chk_fail@plt>
  40235c:	48 83 c4 18          	add    $0x18,%rsp
  402360:	5b                   	pop    %rbx
  402361:	5d                   	pop    %rbp
  402362:	41 5c                	pop    %r12
  402364:	41 5d                	pop    %r13
  402366:	c3                   	retq   

0000000000402367 <urlencode>:
  402367:	41 54                	push   %r12
  402369:	55                   	push   %rbp
  40236a:	53                   	push   %rbx
  40236b:	48 83 ec 10          	sub    $0x10,%rsp
  40236f:	48 89 fb             	mov    %rdi,%rbx
  402372:	48 89 f5             	mov    %rsi,%rbp
  402375:	64 48 8b 04 25 28 00 	mov    %fs:0x28,%rax
  40237c:	00 00 
  40237e:	48 89 44 24 08       	mov    %rax,0x8(%rsp)
  402383:	31 c0                	xor    %eax,%eax
  402385:	48 c7 c1 ff ff ff ff 	mov    $0xffffffffffffffff,%rcx
  40238c:	f2 ae                	repnz scas %es:(%rdi),%al
  40238e:	48 f7 d1             	not    %rcx
  402391:	8d 41 ff             	lea    -0x1(%rcx),%eax
  402394:	e9 aa 00 00 00       	jmpq   402443 <urlencode+0xdc>
  402399:	44 0f b6 03          	movzbl (%rbx),%r8d
  40239d:	41 80 f8 2a          	cmp    $0x2a,%r8b
  4023a1:	0f 94 c2             	sete   %dl
  4023a4:	41 80 f8 2d          	cmp    $0x2d,%r8b
  4023a8:	0f 94 c0             	sete   %al
  4023ab:	08 c2                	or     %al,%dl
  4023ad:	75 24                	jne    4023d3 <urlencode+0x6c>
  4023af:	41 80 f8 2e          	cmp    $0x2e,%r8b
  4023b3:	74 1e                	je     4023d3 <urlencode+0x6c>
  4023b5:	41 80 f8 5f          	cmp    $0x5f,%r8b
  4023b9:	74 18                	je     4023d3 <urlencode+0x6c>
  4023bb:	41 8d 40 d0          	lea    -0x30(%r8),%eax
  4023bf:	3c 09                	cmp    $0x9,%al
  4023c1:	76 10                	jbe    4023d3 <urlencode+0x6c>
  4023c3:	41 8d 40 bf          	lea    -0x41(%r8),%eax
  4023c7:	3c 19                	cmp    $0x19,%al
  4023c9:	76 08                	jbe    4023d3 <urlencode+0x6c>
  4023cb:	41 8d 40 9f          	lea    -0x61(%r8),%eax
  4023cf:	3c 19                	cmp    $0x19,%al
  4023d1:	77 0a                	ja     4023dd <urlencode+0x76>
  4023d3:	44 88 45 00          	mov    %r8b,0x0(%rbp)
  4023d7:	48 8d 6d 01          	lea    0x1(%rbp),%rbp
  4023db:	eb 5f                	jmp    40243c <urlencode+0xd5>
  4023dd:	41 80 f8 20          	cmp    $0x20,%r8b
  4023e1:	75 0a                	jne    4023ed <urlencode+0x86>
  4023e3:	c6 45 00 2b          	movb   $0x2b,0x0(%rbp)
  4023e7:	48 8d 6d 01          	lea    0x1(%rbp),%rbp
  4023eb:	eb 4f                	jmp    40243c <urlencode+0xd5>
  4023ed:	41 8d 40 e0          	lea    -0x20(%r8),%eax
  4023f1:	3c 5f                	cmp    $0x5f,%al
  4023f3:	0f 96 c2             	setbe  %dl
  4023f6:	41 80 f8 09          	cmp    $0x9,%r8b
  4023fa:	0f 94 c0             	sete   %al
  4023fd:	08 c2                	or     %al,%dl
  4023ff:	74 50                	je     402451 <urlencode+0xea>
  402401:	45 0f b6 c0          	movzbl %r8b,%r8d
  402405:	b9 38 37 40 00       	mov    $0x403738,%ecx
  40240a:	ba 08 00 00 00       	mov    $0x8,%edx
  40240f:	be 01 00 00 00       	mov    $0x1,%esi
  402414:	48 89 e7             	mov    %rsp,%rdi
  402417:	b8 00 00 00 00       	mov    $0x0,%eax
  40241c:	e8 5f ea ff ff       	callq  400e80 <__sprintf_chk@plt>
  402421:	0f b6 04 24          	movzbl (%rsp),%eax
  402425:	88 45 00             	mov    %al,0x0(%rbp)
  402428:	0f b6 44 24 01       	movzbl 0x1(%rsp),%eax
  40242d:	88 45 01             	mov    %al,0x1(%rbp)
  402430:	0f b6 44 24 02       	movzbl 0x2(%rsp),%eax
  402435:	88 45 02             	mov    %al,0x2(%rbp)
  402438:	48 8d 6d 03          	lea    0x3(%rbp),%rbp
  40243c:	48 83 c3 01          	add    $0x1,%rbx
  402440:	44 89 e0             	mov    %r12d,%eax
  402443:	44 8d 60 ff          	lea    -0x1(%rax),%r12d
  402447:	85 c0                	test   %eax,%eax
  402449:	0f 85 4a ff ff ff    	jne    402399 <urlencode+0x32>
  40244f:	eb 05                	jmp    402456 <urlencode+0xef>
  402451:	b8 ff ff ff ff       	mov    $0xffffffff,%eax
  402456:	48 8b 74 24 08       	mov    0x8(%rsp),%rsi
  40245b:	64 48 33 34 25 28 00 	xor    %fs:0x28,%rsi
  402462:	00 00 
  402464:	74 05                	je     40246b <urlencode+0x104>
  402466:	e8 85 e8 ff ff       	callq  400cf0 <__stack_chk_fail@plt>
  40246b:	48 83 c4 10          	add    $0x10,%rsp
  40246f:	5b                   	pop    %rbx
  402470:	5d                   	pop    %rbp
  402471:	41 5c                	pop    %r12
  402473:	c3                   	retq   

0000000000402474 <submitr>:
  402474:	41 57                	push   %r15
  402476:	41 56                	push   %r14
  402478:	41 55                	push   %r13
  40247a:	41 54                	push   %r12
  40247c:	55                   	push   %rbp
  40247d:	53                   	push   %rbx
  40247e:	48 81 ec 58 a0 00 00 	sub    $0xa058,%rsp
  402485:	49 89 fc             	mov    %rdi,%r12
  402488:	89 74 24 04          	mov    %esi,0x4(%rsp)
  40248c:	49 89 d7             	mov    %rdx,%r15
  40248f:	49 89 ce             	mov    %rcx,%r14
  402492:	4c 89 44 24 08       	mov    %r8,0x8(%rsp)
  402497:	4d 89 cd             	mov    %r9,%r13
  40249a:	48 8b 9c 24 90 a0 00 	mov    0xa090(%rsp),%rbx
  4024a1:	00 
  4024a2:	64 48 8b 04 25 28 00 	mov    %fs:0x28,%rax
  4024a9:	00 00 
  4024ab:	48 89 84 24 48 a0 00 	mov    %rax,0xa048(%rsp)
  4024b2:	00 
  4024b3:	31 c0                	xor    %eax,%eax
  4024b5:	c7 44 24 1c 00 00 00 	movl   $0x0,0x1c(%rsp)
  4024bc:	00 
  4024bd:	ba 00 00 00 00       	mov    $0x0,%edx
  4024c2:	be 01 00 00 00       	mov    $0x1,%esi
  4024c7:	bf 02 00 00 00       	mov    $0x2,%edi
  4024cc:	e8 bf e9 ff ff       	callq  400e90 <socket@plt>
  4024d1:	85 c0                	test   %eax,%eax
  4024d3:	79 4e                	jns    402523 <submitr+0xaf>
  4024d5:	48 b8 45 72 72 6f 72 	movabs $0x43203a726f727245,%rax
  4024dc:	3a 20 43 
  4024df:	48 89 03             	mov    %rax,(%rbx)
  4024e2:	48 b8 6c 69 65 6e 74 	movabs $0x6e7520746e65696c,%rax
  4024e9:	20 75 6e 
  4024ec:	48 89 43 08          	mov    %rax,0x8(%rbx)
  4024f0:	48 b8 61 62 6c 65 20 	movabs $0x206f7420656c6261,%rax
  4024f7:	74 6f 20 
  4024fa:	48 89 43 10          	mov    %rax,0x10(%rbx)
  4024fe:	48 b8 63 72 65 61 74 	movabs $0x7320657461657263,%rax
  402505:	65 20 73 
  402508:	48 89 43 18          	mov    %rax,0x18(%rbx)
  40250c:	c7 43 20 6f 63 6b 65 	movl   $0x656b636f,0x20(%rbx)
  402513:	66 c7 43 24 74 00    	movw   $0x74,0x24(%rbx)
  402519:	b8 ff ff ff ff       	mov    $0xffffffff,%eax
  40251e:	e9 97 06 00 00       	jmpq   402bba <submitr+0x746>
  402523:	89 c5                	mov    %eax,%ebp
  402525:	4c 89 e7             	mov    %r12,%rdi
  402528:	e8 43 e8 ff ff       	callq  400d70 <gethostbyname@plt>
  40252d:	48 85 c0             	test   %rax,%rax
  402530:	75 67                	jne    402599 <submitr+0x125>
  402532:	48 b8 45 72 72 6f 72 	movabs $0x44203a726f727245,%rax
  402539:	3a 20 44 
  40253c:	48 89 03             	mov    %rax,(%rbx)
  40253f:	48 b8 4e 53 20 69 73 	movabs $0x6e7520736920534e,%rax
  402546:	20 75 6e 
  402549:	48 89 43 08          	mov    %rax,0x8(%rbx)
  40254d:	48 b8 61 62 6c 65 20 	movabs $0x206f7420656c6261,%rax
  402554:	74 6f 20 
  402557:	48 89 43 10          	mov    %rax,0x10(%rbx)
  40255b:	48 b8 72 65 73 6f 6c 	movabs $0x2065766c6f736572,%rax
  402562:	76 65 20 
  402565:	48 89 43 18          	mov    %rax,0x18(%rbx)
  402569:	48 b8 73 65 72 76 65 	movabs $0x6120726576726573,%rax
  402570:	72 20 61 
  402573:	48 89 43 20          	mov    %rax,0x20(%rbx)
  402577:	c7 43 28 64 64 72 65 	movl   $0x65726464,0x28(%rbx)
  40257e:	66 c7 43 2c 73 73    	movw   $0x7373,0x2c(%rbx)
  402584:	c6 43 2e 00          	movb   $0x0,0x2e(%rbx)
  402588:	89 ef                	mov    %ebp,%edi
  40258a:	e8 a1 e7 ff ff       	callq  400d30 <close@plt>
  40258f:	b8 ff ff ff ff       	mov    $0xffffffff,%eax
  402594:	e9 21 06 00 00       	jmpq   402bba <submitr+0x746>
  402599:	48 c7 44 24 20 00 00 	movq   $0x0,0x20(%rsp)
  4025a0:	00 00 
  4025a2:	48 c7 44 24 28 00 00 	movq   $0x0,0x28(%rsp)
  4025a9:	00 00 
  4025ab:	66 c7 44 24 20 02 00 	movw   $0x2,0x20(%rsp)
  4025b2:	48 63 50 14          	movslq 0x14(%rax),%rdx
  4025b6:	48 8b 40 18          	mov    0x18(%rax),%rax
  4025ba:	48 8b 30             	mov    (%rax),%rsi
  4025bd:	48 8d 7c 24 24       	lea    0x24(%rsp),%rdi
  4025c2:	b9 0c 00 00 00       	mov    $0xc,%ecx
  4025c7:	e8 b4 e7 ff ff       	callq  400d80 <__memmove_chk@plt>
  4025cc:	0f b7 44 24 04       	movzwl 0x4(%rsp),%eax
  4025d1:	66 c1 c8 08          	ror    $0x8,%ax
  4025d5:	66 89 44 24 22       	mov    %ax,0x22(%rsp)
  4025da:	ba 10 00 00 00       	mov    $0x10,%edx
  4025df:	48 8d 74 24 20       	lea    0x20(%rsp),%rsi
  4025e4:	89 ef                	mov    %ebp,%edi
  4025e6:	e8 75 e8 ff ff       	callq  400e60 <connect@plt>
  4025eb:	85 c0                	test   %eax,%eax
  4025ed:	79 59                	jns    402648 <submitr+0x1d4>
  4025ef:	48 b8 45 72 72 6f 72 	movabs $0x55203a726f727245,%rax
  4025f6:	3a 20 55 
  4025f9:	48 89 03             	mov    %rax,(%rbx)
  4025fc:	48 b8 6e 61 62 6c 65 	movabs $0x6f7420656c62616e,%rax
  402603:	20 74 6f 
  402606:	48 89 43 08          	mov    %rax,0x8(%rbx)
  40260a:	48 b8 20 63 6f 6e 6e 	movabs $0x7463656e6e6f6320,%rax
  402611:	65 63 74 
  402614:	48 89 43 10          	mov    %rax,0x10(%rbx)
  402618:	48 b8 20 74 6f 20 74 	movabs $0x20656874206f7420,%rax
  40261f:	68 65 20 
  402622:	48 89 43 18          	mov    %rax,0x18(%rbx)
  402626:	c7 43 20 73 65 72 76 	movl   $0x76726573,0x20(%rbx)
  40262d:	66 c7 43 24 65 72    	movw   $0x7265,0x24(%rbx)
  402633:	c6 43 26 00          	movb   $0x0,0x26(%rbx)
  402637:	89 ef                	mov    %ebp,%edi
  402639:	e8 f2 e6 ff ff       	callq  400d30 <close@plt>
  40263e:	b8 ff ff ff ff       	mov    $0xffffffff,%eax
  402643:	e9 72 05 00 00       	jmpq   402bba <submitr+0x746>
  402648:	48 c7 c6 ff ff ff ff 	mov    $0xffffffffffffffff,%rsi
  40264f:	b8 00 00 00 00       	mov    $0x0,%eax
  402654:	48 89 f1             	mov    %rsi,%rcx
  402657:	4c 89 ef             	mov    %r13,%rdi
  40265a:	f2 ae                	repnz scas %es:(%rdi),%al
  40265c:	48 f7 d1             	not    %rcx
  40265f:	48 89 ca             	mov    %rcx,%rdx
  402662:	48 89 f1             	mov    %rsi,%rcx
  402665:	4c 89 ff             	mov    %r15,%rdi
  402668:	f2 ae                	repnz scas %es:(%rdi),%al
  40266a:	48 f7 d1             	not    %rcx
  40266d:	49 89 c8             	mov    %rcx,%r8
  402670:	48 89 f1             	mov    %rsi,%rcx
  402673:	4c 89 f7             	mov    %r14,%rdi
  402676:	f2 ae                	repnz scas %es:(%rdi),%al
  402678:	48 f7 d1             	not    %rcx
  40267b:	4d 8d 44 08 fe       	lea    -0x2(%r8,%rcx,1),%r8
  402680:	48 89 f1             	mov    %rsi,%rcx
  402683:	48 8b 7c 24 08       	mov    0x8(%rsp),%rdi
  402688:	f2 ae                	repnz scas %es:(%rdi),%al
  40268a:	48 89 c8             	mov    %rcx,%rax
  40268d:	48 f7 d0             	not    %rax
  402690:	49 8d 4c 00 ff       	lea    -0x1(%r8,%rax,1),%rcx
  402695:	48 8d 44 52 fd       	lea    -0x3(%rdx,%rdx,2),%rax
  40269a:	48 8d 84 01 80 00 00 	lea    0x80(%rcx,%rax,1),%rax
  4026a1:	00 
  4026a2:	48 3d 00 20 00 00    	cmp    $0x2000,%rax
  4026a8:	76 72                	jbe    40271c <submitr+0x2a8>
  4026aa:	48 b8 45 72 72 6f 72 	movabs $0x52203a726f727245,%rax
  4026b1:	3a 20 52 
  4026b4:	48 89 03             	mov    %rax,(%rbx)
  4026b7:	48 b8 65 73 75 6c 74 	movabs $0x747320746c757365,%rax
  4026be:	20 73 74 
  4026c1:	48 89 43 08          	mov    %rax,0x8(%rbx)
  4026c5:	48 b8 72 69 6e 67 20 	movabs $0x6f6f7420676e6972,%rax
  4026cc:	74 6f 6f 
  4026cf:	48 89 43 10          	mov    %rax,0x10(%rbx)
  4026d3:	48 b8 20 6c 61 72 67 	movabs $0x202e656772616c20,%rax
  4026da:	65 2e 20 
  4026dd:	48 89 43 18          	mov    %rax,0x18(%rbx)
  4026e1:	48 b8 49 6e 63 72 65 	movabs $0x6573616572636e49,%rax
  4026e8:	61 73 65 
  4026eb:	48 89 43 20          	mov    %rax,0x20(%rbx)
  4026ef:	48 b8 20 53 55 42 4d 	movabs $0x5254494d42555320,%rax
  4026f6:	49 54 52 
  4026f9:	48 89 43 28          	mov    %rax,0x28(%rbx)
  4026fd:	48 b8 5f 4d 41 58 42 	movabs $0x46554258414d5f,%rax
  402704:	55 46 00 
  402707:	48 89 43 30          	mov    %rax,0x30(%rbx)
  40270b:	89 ef                	mov    %ebp,%edi
  40270d:	e8 1e e6 ff ff       	callq  400d30 <close@plt>
  402712:	b8 ff ff ff ff       	mov    $0xffffffff,%eax
  402717:	e9 9e 04 00 00       	jmpq   402bba <submitr+0x746>
  40271c:	48 8d b4 24 40 40 00 	lea    0x4040(%rsp),%rsi
  402723:	00 
  402724:	b9 00 04 00 00       	mov    $0x400,%ecx
  402729:	b8 00 00 00 00       	mov    $0x0,%eax
  40272e:	48 89 f7             	mov    %rsi,%rdi
  402731:	f3 48 ab             	rep stos %rax,%es:(%rdi)
  402734:	4c 89 ef             	mov    %r13,%rdi
  402737:	e8 2b fc ff ff       	callq  402367 <urlencode>
  40273c:	85 c0                	test   %eax,%eax
  40273e:	0f 89 8a 00 00 00    	jns    4027ce <submitr+0x35a>
  402744:	48 b8 45 72 72 6f 72 	movabs $0x52203a726f727245,%rax
  40274b:	3a 20 52 
  40274e:	48 89 03             	mov    %rax,(%rbx)
  402751:	48 b8 65 73 75 6c 74 	movabs $0x747320746c757365,%rax
  402758:	20 73 74 
  40275b:	48 89 43 08          	mov    %rax,0x8(%rbx)
  40275f:	48 b8 72 69 6e 67 20 	movabs $0x6e6f6320676e6972,%rax
  402766:	63 6f 6e 
  402769:	48 89 43 10          	mov    %rax,0x10(%rbx)
  40276d:	48 b8 74 61 69 6e 73 	movabs $0x6e6120736e696174,%rax
  402774:	20 61 6e 
  402777:	48 89 43 18          	mov    %rax,0x18(%rbx)
  40277b:	48 b8 20 69 6c 6c 65 	movabs $0x6c6167656c6c6920,%rax
  402782:	67 61 6c 
  402785:	48 89 43 20          	mov    %rax,0x20(%rbx)
  402789:	48 b8 20 6f 72 20 75 	movabs $0x72706e7520726f20,%rax
  402790:	6e 70 72 
  402793:	48 89 43 28          	mov    %rax,0x28(%rbx)
  402797:	48 b8 69 6e 74 61 62 	movabs $0x20656c6261746e69,%rax
  40279e:	6c 65 20 
  4027a1:	48 89 43 30          	mov    %rax,0x30(%rbx)
  4027a5:	48 b8 63 68 61 72 61 	movabs $0x6574636172616863,%rax
  4027ac:	63 74 65 
  4027af:	48 89 43 38          	mov    %rax,0x38(%rbx)
  4027b3:	66 c7 43 40 72 2e    	movw   $0x2e72,0x40(%rbx)
  4027b9:	c6 43 42 00          	movb   $0x0,0x42(%rbx)
  4027bd:	89 ef                	mov    %ebp,%edi
  4027bf:	e8 6c e5 ff ff       	callq  400d30 <close@plt>
  4027c4:	b8 ff ff ff ff       	mov    $0xffffffff,%eax
  4027c9:	e9 ec 03 00 00       	jmpq   402bba <submitr+0x746>
  4027ce:	4c 8d ac 24 40 20 00 	lea    0x2040(%rsp),%r13
  4027d5:	00 
  4027d6:	41 54                	push   %r12
  4027d8:	48 8d 84 24 48 40 00 	lea    0x4048(%rsp),%rax
  4027df:	00 
  4027e0:	50                   	push   %rax
  4027e1:	4d 89 f9             	mov    %r15,%r9
  4027e4:	4d 89 f0             	mov    %r14,%r8
  4027e7:	b9 c8 36 40 00       	mov    $0x4036c8,%ecx
  4027ec:	ba 00 20 00 00       	mov    $0x2000,%edx
  4027f1:	be 01 00 00 00       	mov    $0x1,%esi
  4027f6:	4c 89 ef             	mov    %r13,%rdi
  4027f9:	b8 00 00 00 00       	mov    $0x0,%eax
  4027fe:	e8 7d e6 ff ff       	callq  400e80 <__sprintf_chk@plt>
  402803:	b8 00 00 00 00       	mov    $0x0,%eax
  402808:	48 c7 c1 ff ff ff ff 	mov    $0xffffffffffffffff,%rcx
  40280f:	4c 89 ef             	mov    %r13,%rdi
  402812:	f2 ae                	repnz scas %es:(%rdi),%al
  402814:	48 f7 d1             	not    %rcx
  402817:	48 8d 51 ff          	lea    -0x1(%rcx),%rdx
  40281b:	4c 89 ee             	mov    %r13,%rsi
  40281e:	89 ef                	mov    %ebp,%edi
  402820:	e8 b1 f9 ff ff       	callq  4021d6 <rio_writen>
  402825:	48 83 c4 10          	add    $0x10,%rsp
  402829:	48 85 c0             	test   %rax,%rax
  40282c:	79 6e                	jns    40289c <submitr+0x428>
  40282e:	48 b8 45 72 72 6f 72 	movabs $0x43203a726f727245,%rax
  402835:	3a 20 43 
  402838:	48 89 03             	mov    %rax,(%rbx)
  40283b:	48 b8 6c 69 65 6e 74 	movabs $0x6e7520746e65696c,%rax
  402842:	20 75 6e 
  402845:	48 89 43 08          	mov    %rax,0x8(%rbx)
  402849:	48 b8 61 62 6c 65 20 	movabs $0x206f7420656c6261,%rax
  402850:	74 6f 20 
  402853:	48 89 43 10          	mov    %rax,0x10(%rbx)
  402857:	48 b8 77 72 69 74 65 	movabs $0x6f74206574697277,%rax
  40285e:	20 74 6f 
  402861:	48 89 43 18          	mov    %rax,0x18(%rbx)
  402865:	48 b8 20 74 68 65 20 	movabs $0x7365722065687420,%rax
  40286c:	72 65 73 
  40286f:	48 89 43 20          	mov    %rax,0x20(%rbx)
  402873:	48 b8 75 6c 74 20 73 	movabs $0x7672657320746c75,%rax
  40287a:	65 72 76 
  40287d:	48 89 43 28          	mov    %rax,0x28(%rbx)
  402881:	66 c7 43 30 65 72    	movw   $0x7265,0x30(%rbx)
  402887:	c6 43 32 00          	movb   $0x0,0x32(%rbx)
  40288b:	89 ef                	mov    %ebp,%edi
  40288d:	e8 9e e4 ff ff       	callq  400d30 <close@plt>
  402892:	b8 ff ff ff ff       	mov    $0xffffffff,%eax
  402897:	e9 1e 03 00 00       	jmpq   402bba <submitr+0x746>
  40289c:	89 ee                	mov    %ebp,%esi
  40289e:	48 8d 7c 24 30       	lea    0x30(%rsp),%rdi
  4028a3:	e8 ee f8 ff ff       	callq  402196 <rio_readinitb>
  4028a8:	ba 00 20 00 00       	mov    $0x2000,%edx
  4028ad:	48 8d b4 24 40 20 00 	lea    0x2040(%rsp),%rsi
  4028b4:	00 
  4028b5:	48 8d 7c 24 30       	lea    0x30(%rsp),%rdi
  4028ba:	e8 fe f9 ff ff       	callq  4022bd <rio_readlineb>
  4028bf:	48 85 c0             	test   %rax,%rax
  4028c2:	7f 7d                	jg     402941 <submitr+0x4cd>
  4028c4:	48 b8 45 72 72 6f 72 	movabs $0x43203a726f727245,%rax
  4028cb:	3a 20 43 
  4028ce:	48 89 03             	mov    %rax,(%rbx)
  4028d1:	48 b8 6c 69 65 6e 74 	movabs $0x6e7520746e65696c,%rax
  4028d8:	20 75 6e 
  4028db:	48 89 43 08          	mov    %rax,0x8(%rbx)
  4028df:	48 b8 61 62 6c 65 20 	movabs $0x206f7420656c6261,%rax
  4028e6:	74 6f 20 
  4028e9:	48 89 43 10          	mov    %rax,0x10(%rbx)
  4028ed:	48 b8 72 65 61 64 20 	movabs $0x7269662064616572,%rax
  4028f4:	66 69 72 
  4028f7:	48 89 43 18          	mov    %rax,0x18(%rbx)
  4028fb:	48 b8 73 74 20 68 65 	movabs $0x6564616568207473,%rax
  402902:	61 64 65 
  402905:	48 89 43 20          	mov    %rax,0x20(%rbx)
  402909:	48 b8 72 20 66 72 6f 	movabs $0x72206d6f72662072,%rax
  402910:	6d 20 72 
  402913:	48 89 43 28          	mov    %rax,0x28(%rbx)
  402917:	48 b8 65 73 75 6c 74 	movabs $0x657320746c757365,%rax
  40291e:	20 73 65 
  402921:	48 89 43 30          	mov    %rax,0x30(%rbx)
  402925:	c7 43 38 72 76 65 72 	movl   $0x72657672,0x38(%rbx)
  40292c:	c6 43 3c 00          	movb   $0x0,0x3c(%rbx)
  402930:	89 ef                	mov    %ebp,%edi
  402932:	e8 f9 e3 ff ff       	callq  400d30 <close@plt>
  402937:	b8 ff ff ff ff       	mov    $0xffffffff,%eax
  40293c:	e9 79 02 00 00       	jmpq   402bba <submitr+0x746>
  402941:	4c 8d 84 24 40 80 00 	lea    0x8040(%rsp),%r8
  402948:	00 
  402949:	48 8d 4c 24 1c       	lea    0x1c(%rsp),%rcx
  40294e:	48 8d 94 24 40 60 00 	lea    0x6040(%rsp),%rdx
  402955:	00 
  402956:	be 3f 37 40 00       	mov    $0x40373f,%esi
  40295b:	48 8d bc 24 40 20 00 	lea    0x2040(%rsp),%rdi
  402962:	00 
  402963:	b8 00 00 00 00       	mov    $0x0,%eax
  402968:	e8 73 e4 ff ff       	callq  400de0 <__isoc99_sscanf@plt>
  40296d:	e9 95 00 00 00       	jmpq   402a07 <submitr+0x593>
  402972:	ba 00 20 00 00       	mov    $0x2000,%edx
  402977:	48 8d b4 24 40 20 00 	lea    0x2040(%rsp),%rsi
  40297e:	00 
  40297f:	48 8d 7c 24 30       	lea    0x30(%rsp),%rdi
  402984:	e8 34 f9 ff ff       	callq  4022bd <rio_readlineb>
  402989:	48 85 c0             	test   %rax,%rax
  40298c:	7f 79                	jg     402a07 <submitr+0x593>
  40298e:	48 b8 45 72 72 6f 72 	movabs $0x43203a726f727245,%rax
  402995:	3a 20 43 
  402998:	48 89 03             	mov    %rax,(%rbx)
  40299b:	48 b8 6c 69 65 6e 74 	movabs $0x6e7520746e65696c,%rax
  4029a2:	20 75 6e 
  4029a5:	48 89 43 08          	mov    %rax,0x8(%rbx)
  4029a9:	48 b8 61 62 6c 65 20 	movabs $0x206f7420656c6261,%rax
  4029b0:	74 6f 20 
  4029b3:	48 89 43 10          	mov    %rax,0x10(%rbx)
  4029b7:	48 b8 72 65 61 64 20 	movabs $0x6165682064616572,%rax
  4029be:	68 65 61 
  4029c1:	48 89 43 18          	mov    %rax,0x18(%rbx)
  4029c5:	48 b8 64 65 72 73 20 	movabs $0x6f72662073726564,%rax
  4029cc:	66 72 6f 
  4029cf:	48 89 43 20          	mov    %rax,0x20(%rbx)
  4029d3:	48 b8 6d 20 74 68 65 	movabs $0x657220656874206d,%rax
  4029da:	20 72 65 
  4029dd:	48 89 43 28          	mov    %rax,0x28(%rbx)
  4029e1:	48 b8 73 75 6c 74 20 	movabs $0x72657320746c7573,%rax
  4029e8:	73 65 72 
  4029eb:	48 89 43 30          	mov    %rax,0x30(%rbx)
  4029ef:	c7 43 38 76 65 72 00 	movl   $0x726576,0x38(%rbx)
  4029f6:	89 ef                	mov    %ebp,%edi
  4029f8:	e8 33 e3 ff ff       	callq  400d30 <close@plt>
  4029fd:	b8 ff ff ff ff       	mov    $0xffffffff,%eax
  402a02:	e9 b3 01 00 00       	jmpq   402bba <submitr+0x746>
  402a07:	0f b6 94 24 40 20 00 	movzbl 0x2040(%rsp),%edx
  402a0e:	00 
  402a0f:	b8 0d 00 00 00       	mov    $0xd,%eax
  402a14:	29 d0                	sub    %edx,%eax
  402a16:	75 1b                	jne    402a33 <submitr+0x5bf>
  402a18:	0f b6 94 24 41 20 00 	movzbl 0x2041(%rsp),%edx
  402a1f:	00 
  402a20:	b8 0a 00 00 00       	mov    $0xa,%eax
  402a25:	29 d0                	sub    %edx,%eax
  402a27:	75 0a                	jne    402a33 <submitr+0x5bf>
  402a29:	0f b6 84 24 42 20 00 	movzbl 0x2042(%rsp),%eax
  402a30:	00 
  402a31:	f7 d8                	neg    %eax
  402a33:	85 c0                	test   %eax,%eax
  402a35:	0f 85 37 ff ff ff    	jne    402972 <submitr+0x4fe>
  402a3b:	ba 00 20 00 00       	mov    $0x2000,%edx
  402a40:	48 8d b4 24 40 20 00 	lea    0x2040(%rsp),%rsi
  402a47:	00 
  402a48:	48 8d 7c 24 30       	lea    0x30(%rsp),%rdi
  402a4d:	e8 6b f8 ff ff       	callq  4022bd <rio_readlineb>
  402a52:	48 85 c0             	test   %rax,%rax
  402a55:	0f 8f 83 00 00 00    	jg     402ade <submitr+0x66a>
  402a5b:	48 b8 45 72 72 6f 72 	movabs $0x43203a726f727245,%rax
  402a62:	3a 20 43 
  402a65:	48 89 03             	mov    %rax,(%rbx)
  402a68:	48 b8 6c 69 65 6e 74 	movabs $0x6e7520746e65696c,%rax
  402a6f:	20 75 6e 
  402a72:	48 89 43 08          	mov    %rax,0x8(%rbx)
  402a76:	48 b8 61 62 6c 65 20 	movabs $0x206f7420656c6261,%rax
  402a7d:	74 6f 20 
  402a80:	48 89 43 10          	mov    %rax,0x10(%rbx)
  402a84:	48 b8 72 65 61 64 20 	movabs $0x6174732064616572,%rax
  402a8b:	73 74 61 
  402a8e:	48 89 43 18          	mov    %rax,0x18(%rbx)
  402a92:	48 b8 74 75 73 20 6d 	movabs $0x7373656d20737574,%rax
  402a99:	65 73 73 
  402a9c:	48 89 43 20          	mov    %rax,0x20(%rbx)
  402aa0:	48 b8 61 67 65 20 66 	movabs $0x6d6f726620656761,%rax
  402aa7:	72 6f 6d 
  402aaa:	48 89 43 28          	mov    %rax,0x28(%rbx)
  402aae:	48 b8 20 72 65 73 75 	movabs $0x20746c7573657220,%rax
  402ab5:	6c 74 20 
  402ab8:	48 89 43 30          	mov    %rax,0x30(%rbx)
  402abc:	c7 43 38 73 65 72 76 	movl   $0x76726573,0x38(%rbx)
  402ac3:	66 c7 43 3c 65 72    	movw   $0x7265,0x3c(%rbx)
  402ac9:	c6 43 3e 00          	movb   $0x0,0x3e(%rbx)
  402acd:	89 ef                	mov    %ebp,%edi
  402acf:	e8 5c e2 ff ff       	callq  400d30 <close@plt>
  402ad4:	b8 ff ff ff ff       	mov    $0xffffffff,%eax
  402ad9:	e9 dc 00 00 00       	jmpq   402bba <submitr+0x746>
  402ade:	44 8b 44 24 1c       	mov    0x1c(%rsp),%r8d
  402ae3:	41 81 f8 c8 00 00 00 	cmp    $0xc8,%r8d
  402aea:	74 37                	je     402b23 <submitr+0x6af>
  402aec:	4c 8d 8c 24 40 80 00 	lea    0x8040(%rsp),%r9
  402af3:	00 
  402af4:	b9 08 37 40 00       	mov    $0x403708,%ecx
  402af9:	48 c7 c2 ff ff ff ff 	mov    $0xffffffffffffffff,%rdx
  402b00:	be 01 00 00 00       	mov    $0x1,%esi
  402b05:	48 89 df             	mov    %rbx,%rdi
  402b08:	b8 00 00 00 00       	mov    $0x0,%eax
  402b0d:	e8 6e e3 ff ff       	callq  400e80 <__sprintf_chk@plt>
  402b12:	89 ef                	mov    %ebp,%edi
  402b14:	e8 17 e2 ff ff       	callq  400d30 <close@plt>
  402b19:	b8 ff ff ff ff       	mov    $0xffffffff,%eax
  402b1e:	e9 97 00 00 00       	jmpq   402bba <submitr+0x746>
  402b23:	48 8d b4 24 40 20 00 	lea    0x2040(%rsp),%rsi
  402b2a:	00 
  402b2b:	48 89 df             	mov    %rbx,%rdi
  402b2e:	e8 8d e1 ff ff       	callq  400cc0 <strcpy@plt>
  402b33:	89 ef                	mov    %ebp,%edi
  402b35:	e8 f6 e1 ff ff       	callq  400d30 <close@plt>
  402b3a:	0f b6 03             	movzbl (%rbx),%eax
  402b3d:	ba 4f 00 00 00       	mov    $0x4f,%edx
  402b42:	29 c2                	sub    %eax,%edx
  402b44:	75 22                	jne    402b68 <submitr+0x6f4>
  402b46:	0f b6 4b 01          	movzbl 0x1(%rbx),%ecx
  402b4a:	b8 4b 00 00 00       	mov    $0x4b,%eax
  402b4f:	29 c8                	sub    %ecx,%eax
  402b51:	75 17                	jne    402b6a <submitr+0x6f6>
  402b53:	0f b6 4b 02          	movzbl 0x2(%rbx),%ecx
  402b57:	b8 0a 00 00 00       	mov    $0xa,%eax
  402b5c:	29 c8                	sub    %ecx,%eax
  402b5e:	75 0a                	jne    402b6a <submitr+0x6f6>
  402b60:	0f b6 43 03          	movzbl 0x3(%rbx),%eax
  402b64:	f7 d8                	neg    %eax
  402b66:	eb 02                	jmp    402b6a <submitr+0x6f6>
  402b68:	89 d0                	mov    %edx,%eax
  402b6a:	85 c0                	test   %eax,%eax
  402b6c:	74 40                	je     402bae <submitr+0x73a>
  402b6e:	bf 50 37 40 00       	mov    $0x403750,%edi
  402b73:	b9 05 00 00 00       	mov    $0x5,%ecx
  402b78:	48 89 de             	mov    %rbx,%rsi
  402b7b:	f3 a6                	repz cmpsb %es:(%rdi),%ds:(%rsi)
  402b7d:	0f 97 c0             	seta   %al
  402b80:	0f 92 c1             	setb   %cl
  402b83:	29 c8                	sub    %ecx,%eax
  402b85:	0f be c0             	movsbl %al,%eax
  402b88:	85 c0                	test   %eax,%eax
  402b8a:	74 2e                	je     402bba <submitr+0x746>
  402b8c:	85 d2                	test   %edx,%edx
  402b8e:	75 13                	jne    402ba3 <submitr+0x72f>
  402b90:	0f b6 43 01          	movzbl 0x1(%rbx),%eax
  402b94:	ba 4b 00 00 00       	mov    $0x4b,%edx
  402b99:	29 c2                	sub    %eax,%edx
  402b9b:	75 06                	jne    402ba3 <submitr+0x72f>
  402b9d:	0f b6 53 02          	movzbl 0x2(%rbx),%edx
  402ba1:	f7 da                	neg    %edx
  402ba3:	85 d2                	test   %edx,%edx
  402ba5:	75 0e                	jne    402bb5 <submitr+0x741>
  402ba7:	b8 00 00 00 00       	mov    $0x0,%eax
  402bac:	eb 0c                	jmp    402bba <submitr+0x746>
  402bae:	b8 00 00 00 00       	mov    $0x0,%eax
  402bb3:	eb 05                	jmp    402bba <submitr+0x746>
  402bb5:	b8 ff ff ff ff       	mov    $0xffffffff,%eax
  402bba:	48 8b 9c 24 48 a0 00 	mov    0xa048(%rsp),%rbx
  402bc1:	00 
  402bc2:	64 48 33 1c 25 28 00 	xor    %fs:0x28,%rbx
  402bc9:	00 00 
  402bcb:	74 05                	je     402bd2 <submitr+0x75e>
  402bcd:	e8 1e e1 ff ff       	callq  400cf0 <__stack_chk_fail@plt>
  402bd2:	48 81 c4 58 a0 00 00 	add    $0xa058,%rsp
  402bd9:	5b                   	pop    %rbx
  402bda:	5d                   	pop    %rbp
  402bdb:	41 5c                	pop    %r12
  402bdd:	41 5d                	pop    %r13
  402bdf:	41 5e                	pop    %r14
  402be1:	41 5f                	pop    %r15
  402be3:	c3                   	retq   

0000000000402be4 <init_timeout>:
  402be4:	85 ff                	test   %edi,%edi
  402be6:	74 23                	je     402c0b <init_timeout+0x27>
  402be8:	53                   	push   %rbx
  402be9:	89 fb                	mov    %edi,%ebx
  402beb:	85 ff                	test   %edi,%edi
  402bed:	79 05                	jns    402bf4 <init_timeout+0x10>
  402bef:	bb 00 00 00 00       	mov    $0x0,%ebx
  402bf4:	be a8 21 40 00       	mov    $0x4021a8,%esi
  402bf9:	bf 0e 00 00 00       	mov    $0xe,%edi
  402bfe:	e8 5d e1 ff ff       	callq  400d60 <signal@plt>
  402c03:	89 df                	mov    %ebx,%edi
  402c05:	e8 16 e1 ff ff       	callq  400d20 <alarm@plt>
  402c0a:	5b                   	pop    %rbx
  402c0b:	f3 c3                	repz retq 

0000000000402c0d <init_driver>:
  402c0d:	55                   	push   %rbp
  402c0e:	53                   	push   %rbx
  402c0f:	48 83 ec 28          	sub    $0x28,%rsp
  402c13:	48 89 fd             	mov    %rdi,%rbp
  402c16:	64 48 8b 04 25 28 00 	mov    %fs:0x28,%rax
  402c1d:	00 00 
  402c1f:	48 89 44 24 18       	mov    %rax,0x18(%rsp)
  402c24:	31 c0                	xor    %eax,%eax
  402c26:	be 01 00 00 00       	mov    $0x1,%esi
  402c2b:	bf 0d 00 00 00       	mov    $0xd,%edi
  402c30:	e8 2b e1 ff ff       	callq  400d60 <signal@plt>
  402c35:	be 01 00 00 00       	mov    $0x1,%esi
  402c3a:	bf 1d 00 00 00       	mov    $0x1d,%edi
  402c3f:	e8 1c e1 ff ff       	callq  400d60 <signal@plt>
  402c44:	be 01 00 00 00       	mov    $0x1,%esi
  402c49:	bf 1d 00 00 00       	mov    $0x1d,%edi
  402c4e:	e8 0d e1 ff ff       	callq  400d60 <signal@plt>
  402c53:	ba 00 00 00 00       	mov    $0x0,%edx
  402c58:	be 01 00 00 00       	mov    $0x1,%esi
  402c5d:	bf 02 00 00 00       	mov    $0x2,%edi
  402c62:	e8 29 e2 ff ff       	callq  400e90 <socket@plt>
  402c67:	85 c0                	test   %eax,%eax
  402c69:	79 4f                	jns    402cba <init_driver+0xad>
  402c6b:	48 b8 45 72 72 6f 72 	movabs $0x43203a726f727245,%rax
  402c72:	3a 20 43 
  402c75:	48 89 45 00          	mov    %rax,0x0(%rbp)
  402c79:	48 b8 6c 69 65 6e 74 	movabs $0x6e7520746e65696c,%rax
  402c80:	20 75 6e 
  402c83:	48 89 45 08          	mov    %rax,0x8(%rbp)
  402c87:	48 b8 61 62 6c 65 20 	movabs $0x206f7420656c6261,%rax
  402c8e:	74 6f 20 
  402c91:	48 89 45 10          	mov    %rax,0x10(%rbp)
  402c95:	48 b8 63 72 65 61 74 	movabs $0x7320657461657263,%rax
  402c9c:	65 20 73 
  402c9f:	48 89 45 18          	mov    %rax,0x18(%rbp)
  402ca3:	c7 45 20 6f 63 6b 65 	movl   $0x656b636f,0x20(%rbp)
  402caa:	66 c7 45 24 74 00    	movw   $0x74,0x24(%rbp)
  402cb0:	b8 ff ff ff ff       	mov    $0xffffffff,%eax
  402cb5:	e9 2a 01 00 00       	jmpq   402de4 <init_driver+0x1d7>
  402cba:	89 c3                	mov    %eax,%ebx
  402cbc:	bf 55 37 40 00       	mov    $0x403755,%edi
  402cc1:	e8 aa e0 ff ff       	callq  400d70 <gethostbyname@plt>
  402cc6:	48 85 c0             	test   %rax,%rax
  402cc9:	75 68                	jne    402d33 <init_driver+0x126>
  402ccb:	48 b8 45 72 72 6f 72 	movabs $0x44203a726f727245,%rax
  402cd2:	3a 20 44 
  402cd5:	48 89 45 00          	mov    %rax,0x0(%rbp)
  402cd9:	48 b8 4e 53 20 69 73 	movabs $0x6e7520736920534e,%rax
  402ce0:	20 75 6e 
  402ce3:	48 89 45 08          	mov    %rax,0x8(%rbp)
  402ce7:	48 b8 61 62 6c 65 20 	movabs $0x206f7420656c6261,%rax
  402cee:	74 6f 20 
  402cf1:	48 89 45 10          	mov    %rax,0x10(%rbp)
  402cf5:	48 b8 72 65 73 6f 6c 	movabs $0x2065766c6f736572,%rax
  402cfc:	76 65 20 
  402cff:	48 89 45 18          	mov    %rax,0x18(%rbp)
  402d03:	48 b8 73 65 72 76 65 	movabs $0x6120726576726573,%rax
  402d0a:	72 20 61 
  402d0d:	48 89 45 20          	mov    %rax,0x20(%rbp)
  402d11:	c7 45 28 64 64 72 65 	movl   $0x65726464,0x28(%rbp)
  402d18:	66 c7 45 2c 73 73    	movw   $0x7373,0x2c(%rbp)
  402d1e:	c6 45 2e 00          	movb   $0x0,0x2e(%rbp)
  402d22:	89 df                	mov    %ebx,%edi
  402d24:	e8 07 e0 ff ff       	callq  400d30 <close@plt>
  402d29:	b8 ff ff ff ff       	mov    $0xffffffff,%eax
  402d2e:	e9 b1 00 00 00       	jmpq   402de4 <init_driver+0x1d7>
  402d33:	48 c7 04 24 00 00 00 	movq   $0x0,(%rsp)
  402d3a:	00 
  402d3b:	48 c7 44 24 08 00 00 	movq   $0x0,0x8(%rsp)
  402d42:	00 00 
  402d44:	66 c7 04 24 02 00    	movw   $0x2,(%rsp)
  402d4a:	48 63 50 14          	movslq 0x14(%rax),%rdx
  402d4e:	48 8b 40 18          	mov    0x18(%rax),%rax
  402d52:	48 8b 30             	mov    (%rax),%rsi
  402d55:	48 8d 7c 24 04       	lea    0x4(%rsp),%rdi
  402d5a:	b9 0c 00 00 00       	mov    $0xc,%ecx
  402d5f:	e8 1c e0 ff ff       	callq  400d80 <__memmove_chk@plt>
  402d64:	66 c7 44 24 02 3c 9a 	movw   $0x9a3c,0x2(%rsp)
  402d6b:	ba 10 00 00 00       	mov    $0x10,%edx
  402d70:	48 89 e6             	mov    %rsp,%rsi
  402d73:	89 df                	mov    %ebx,%edi
  402d75:	e8 e6 e0 ff ff       	callq  400e60 <connect@plt>
  402d7a:	85 c0                	test   %eax,%eax
  402d7c:	79 50                	jns    402dce <init_driver+0x1c1>
  402d7e:	48 b8 45 72 72 6f 72 	movabs $0x55203a726f727245,%rax
  402d85:	3a 20 55 
  402d88:	48 89 45 00          	mov    %rax,0x0(%rbp)
  402d8c:	48 b8 6e 61 62 6c 65 	movabs $0x6f7420656c62616e,%rax
  402d93:	20 74 6f 
  402d96:	48 89 45 08          	mov    %rax,0x8(%rbp)
  402d9a:	48 b8 20 63 6f 6e 6e 	movabs $0x7463656e6e6f6320,%rax
  402da1:	65 63 74 
  402da4:	48 89 45 10          	mov    %rax,0x10(%rbp)
  402da8:	48 b8 20 74 6f 20 73 	movabs $0x76726573206f7420,%rax
  402daf:	65 72 76 
  402db2:	48 89 45 18          	mov    %rax,0x18(%rbp)
  402db6:	66 c7 45 20 65 72    	movw   $0x7265,0x20(%rbp)
  402dbc:	c6 45 22 00          	movb   $0x0,0x22(%rbp)
  402dc0:	89 df                	mov    %ebx,%edi
  402dc2:	e8 69 df ff ff       	callq  400d30 <close@plt>
  402dc7:	b8 ff ff ff ff       	mov    $0xffffffff,%eax
  402dcc:	eb 16                	jmp    402de4 <init_driver+0x1d7>
  402dce:	89 df                	mov    %ebx,%edi
  402dd0:	e8 5b df ff ff       	callq  400d30 <close@plt>
  402dd5:	66 c7 45 00 4f 4b    	movw   $0x4b4f,0x0(%rbp)
  402ddb:	c6 45 02 00          	movb   $0x0,0x2(%rbp)
  402ddf:	b8 00 00 00 00       	mov    $0x0,%eax
  402de4:	48 8b 4c 24 18       	mov    0x18(%rsp),%rcx
  402de9:	64 48 33 0c 25 28 00 	xor    %fs:0x28,%rcx
  402df0:	00 00 
  402df2:	74 05                	je     402df9 <init_driver+0x1ec>
  402df4:	e8 f7 de ff ff       	callq  400cf0 <__stack_chk_fail@plt>
  402df9:	48 83 c4 28          	add    $0x28,%rsp
  402dfd:	5b                   	pop    %rbx
  402dfe:	5d                   	pop    %rbp
  402dff:	c3                   	retq   

0000000000402e00 <driver_post>:
  402e00:	53                   	push   %rbx
  402e01:	4c 89 cb             	mov    %r9,%rbx
  402e04:	45 85 c0             	test   %r8d,%r8d
  402e07:	74 27                	je     402e30 <driver_post+0x30>
  402e09:	48 89 ca             	mov    %rcx,%rdx
  402e0c:	be 65 37 40 00       	mov    $0x403765,%esi
  402e11:	bf 01 00 00 00       	mov    $0x1,%edi
  402e16:	b8 00 00 00 00       	mov    $0x0,%eax
  402e1b:	e8 e0 df ff ff       	callq  400e00 <__printf_chk@plt>
  402e20:	66 c7 03 4f 4b       	movw   $0x4b4f,(%rbx)
  402e25:	c6 43 02 00          	movb   $0x0,0x2(%rbx)
  402e29:	b8 00 00 00 00       	mov    $0x0,%eax
  402e2e:	eb 3f                	jmp    402e6f <driver_post+0x6f>
  402e30:	48 85 ff             	test   %rdi,%rdi
  402e33:	74 2c                	je     402e61 <driver_post+0x61>
  402e35:	80 3f 00             	cmpb   $0x0,(%rdi)
  402e38:	74 27                	je     402e61 <driver_post+0x61>
  402e3a:	48 83 ec 08          	sub    $0x8,%rsp
  402e3e:	41 51                	push   %r9
  402e40:	49 89 c9             	mov    %rcx,%r9
  402e43:	49 89 d0             	mov    %rdx,%r8
  402e46:	48 89 f9             	mov    %rdi,%rcx
  402e49:	48 89 f2             	mov    %rsi,%rdx
  402e4c:	be 9a 3c 00 00       	mov    $0x3c9a,%esi
  402e51:	bf 55 37 40 00       	mov    $0x403755,%edi
  402e56:	e8 19 f6 ff ff       	callq  402474 <submitr>
  402e5b:	48 83 c4 10          	add    $0x10,%rsp
  402e5f:	eb 0e                	jmp    402e6f <driver_post+0x6f>
  402e61:	66 c7 03 4f 4b       	movw   $0x4b4f,(%rbx)
  402e66:	c6 43 02 00          	movb   $0x0,0x2(%rbx)
  402e6a:	b8 00 00 00 00       	mov    $0x0,%eax
  402e6f:	5b                   	pop    %rbx
  402e70:	c3                   	retq   

0000000000402e71 <check>:
  402e71:	89 f8                	mov    %edi,%eax
  402e73:	c1 e8 1c             	shr    $0x1c,%eax
  402e76:	85 c0                	test   %eax,%eax
  402e78:	74 1d                	je     402e97 <check+0x26>
  402e7a:	b9 00 00 00 00       	mov    $0x0,%ecx
  402e7f:	eb 0b                	jmp    402e8c <check+0x1b>
  402e81:	89 f8                	mov    %edi,%eax
  402e83:	d3 e8                	shr    %cl,%eax
  402e85:	3c 0a                	cmp    $0xa,%al
  402e87:	74 14                	je     402e9d <check+0x2c>
  402e89:	83 c1 08             	add    $0x8,%ecx
  402e8c:	83 f9 1f             	cmp    $0x1f,%ecx
  402e8f:	7e f0                	jle    402e81 <check+0x10>
  402e91:	b8 01 00 00 00       	mov    $0x1,%eax
  402e96:	c3                   	retq   
  402e97:	b8 00 00 00 00       	mov    $0x0,%eax
  402e9c:	c3                   	retq   
  402e9d:	b8 00 00 00 00       	mov    $0x0,%eax
  402ea2:	c3                   	retq   

0000000000402ea3 <gencookie>:
  402ea3:	53                   	push   %rbx
  402ea4:	83 c7 01             	add    $0x1,%edi
  402ea7:	e8 f4 dd ff ff       	callq  400ca0 <srandom@plt>
  402eac:	e8 0f df ff ff       	callq  400dc0 <random@plt>
  402eb1:	89 c3                	mov    %eax,%ebx
  402eb3:	89 c7                	mov    %eax,%edi
  402eb5:	e8 b7 ff ff ff       	callq  402e71 <check>
  402eba:	85 c0                	test   %eax,%eax
  402ebc:	74 ee                	je     402eac <gencookie+0x9>
  402ebe:	89 d8                	mov    %ebx,%eax
  402ec0:	5b                   	pop    %rbx
  402ec1:	c3                   	retq   
  402ec2:	66 2e 0f 1f 84 00 00 	nopw   %cs:0x0(%rax,%rax,1)
  402ec9:	00 00 00 
  402ecc:	0f 1f 40 00          	nopl   0x0(%rax)

0000000000402ed0 <__libc_csu_init>:
  402ed0:	41 57                	push   %r15
  402ed2:	41 56                	push   %r14
  402ed4:	41 89 ff             	mov    %edi,%r15d
  402ed7:	41 55                	push   %r13
  402ed9:	41 54                	push   %r12
  402edb:	4c 8d 25 2e 1f 20 00 	lea    0x201f2e(%rip),%r12        # 604e10 <__frame_dummy_init_array_entry>
  402ee2:	55                   	push   %rbp
  402ee3:	48 8d 2d 2e 1f 20 00 	lea    0x201f2e(%rip),%rbp        # 604e18 <__init_array_end>
  402eea:	53                   	push   %rbx
  402eeb:	49 89 f6             	mov    %rsi,%r14
  402eee:	49 89 d5             	mov    %rdx,%r13
  402ef1:	4c 29 e5             	sub    %r12,%rbp
  402ef4:	48 83 ec 08          	sub    $0x8,%rsp
  402ef8:	48 c1 fd 03          	sar    $0x3,%rbp
  402efc:	e8 47 dd ff ff       	callq  400c48 <_init>
  402f01:	48 85 ed             	test   %rbp,%rbp
  402f04:	74 20                	je     402f26 <__libc_csu_init+0x56>
  402f06:	31 db                	xor    %ebx,%ebx
  402f08:	0f 1f 84 00 00 00 00 	nopl   0x0(%rax,%rax,1)
  402f0f:	00 
  402f10:	4c 89 ea             	mov    %r13,%rdx
  402f13:	4c 89 f6             	mov    %r14,%rsi
  402f16:	44 89 ff             	mov    %r15d,%edi
  402f19:	41 ff 14 dc          	callq  *(%r12,%rbx,8)
  402f1d:	48 83 c3 01          	add    $0x1,%rbx
  402f21:	48 39 eb             	cmp    %rbp,%rbx
  402f24:	75 ea                	jne    402f10 <__libc_csu_init+0x40>
  402f26:	48 83 c4 08          	add    $0x8,%rsp
  402f2a:	5b                   	pop    %rbx
  402f2b:	5d                   	pop    %rbp
  402f2c:	41 5c                	pop    %r12
  402f2e:	41 5d                	pop    %r13
  402f30:	41 5e                	pop    %r14
  402f32:	41 5f                	pop    %r15
  402f34:	c3                   	retq   
  402f35:	90                   	nop
  402f36:	66 2e 0f 1f 84 00 00 	nopw   %cs:0x0(%rax,%rax,1)
  402f3d:	00 00 00 

0000000000402f40 <__libc_csu_fini>:
  402f40:	f3 c3                	repz retq 

Disassembly of section .fini:

0000000000402f44 <_fini>:
  402f44:	48 83 ec 08          	sub    $0x8,%rsp
  402f48:	48 83 c4 08          	add    $0x8,%rsp
  402f4c:	c3                   	retq   
